
DuckWatch.elf:     file format elf32-avr

Sections:
Idx Name          Size      VMA       LMA       File off  Algn
  0 .data         000003aa  00800100  00002210  000022a4  2**0
                  CONTENTS, ALLOC, LOAD, DATA
  1 .text         00002210  00000000  00000000  00000094  2**1
                  CONTENTS, ALLOC, LOAD, READONLY, CODE
  2 .bss          00000101  008004aa  008004aa  0000264e  2**0
                  ALLOC
  3 .comment      0000005c  00000000  00000000  0000264e  2**0
                  CONTENTS, READONLY
  4 .note.gnu.avr.deviceinfo 00000040  00000000  00000000  000026ac  2**2
                  CONTENTS, READONLY
  5 .debug_aranges 00000198  00000000  00000000  000026ec  2**0
                  CONTENTS, READONLY, DEBUGGING
  6 .debug_info   00002ee5  00000000  00000000  00002884  2**0
                  CONTENTS, READONLY, DEBUGGING
  7 .debug_abbrev 00000eb3  00000000  00000000  00005769  2**0
                  CONTENTS, READONLY, DEBUGGING
  8 .debug_line   00000992  00000000  00000000  0000661c  2**0
                  CONTENTS, READONLY, DEBUGGING
  9 .debug_frame  0000073c  00000000  00000000  00006fb0  2**2
                  CONTENTS, READONLY, DEBUGGING
 10 .debug_str    000009a0  00000000  00000000  000076ec  2**0
                  CONTENTS, READONLY, DEBUGGING
 11 .debug_loc    00002176  00000000  00000000  0000808c  2**0
                  CONTENTS, READONLY, DEBUGGING
 12 .debug_ranges 00000190  00000000  00000000  0000a202  2**0
                  CONTENTS, READONLY, DEBUGGING

Disassembly of section .text:

00000000 <__vectors>:
       0:	0c 94 34 00 	jmp	0x68	; 0x68 <__ctors_end>
       4:	0c 94 51 00 	jmp	0xa2	; 0xa2 <__bad_interrupt>
       8:	0c 94 51 00 	jmp	0xa2	; 0xa2 <__bad_interrupt>
       c:	0c 94 51 00 	jmp	0xa2	; 0xa2 <__bad_interrupt>
      10:	0c 94 51 00 	jmp	0xa2	; 0xa2 <__bad_interrupt>
      14:	0c 94 51 00 	jmp	0xa2	; 0xa2 <__bad_interrupt>
      18:	0c 94 51 00 	jmp	0xa2	; 0xa2 <__bad_interrupt>
      1c:	0c 94 51 00 	jmp	0xa2	; 0xa2 <__bad_interrupt>
      20:	0c 94 51 00 	jmp	0xa2	; 0xa2 <__bad_interrupt>
      24:	0c 94 51 00 	jmp	0xa2	; 0xa2 <__bad_interrupt>
      28:	0c 94 51 00 	jmp	0xa2	; 0xa2 <__bad_interrupt>
      2c:	0c 94 51 00 	jmp	0xa2	; 0xa2 <__bad_interrupt>
      30:	0c 94 51 00 	jmp	0xa2	; 0xa2 <__bad_interrupt>
      34:	0c 94 51 00 	jmp	0xa2	; 0xa2 <__bad_interrupt>
      38:	0c 94 51 00 	jmp	0xa2	; 0xa2 <__bad_interrupt>
      3c:	0c 94 51 00 	jmp	0xa2	; 0xa2 <__bad_interrupt>
      40:	0c 94 51 00 	jmp	0xa2	; 0xa2 <__bad_interrupt>
      44:	0c 94 51 00 	jmp	0xa2	; 0xa2 <__bad_interrupt>
      48:	0c 94 51 00 	jmp	0xa2	; 0xa2 <__bad_interrupt>
      4c:	0c 94 51 00 	jmp	0xa2	; 0xa2 <__bad_interrupt>
      50:	0c 94 51 00 	jmp	0xa2	; 0xa2 <__bad_interrupt>
      54:	0c 94 51 00 	jmp	0xa2	; 0xa2 <__bad_interrupt>
      58:	0c 94 51 00 	jmp	0xa2	; 0xa2 <__bad_interrupt>
      5c:	0c 94 51 00 	jmp	0xa2	; 0xa2 <__bad_interrupt>
      60:	0c 94 51 00 	jmp	0xa2	; 0xa2 <__bad_interrupt>
      64:	0c 94 51 00 	jmp	0xa2	; 0xa2 <__bad_interrupt>

00000068 <__ctors_end>:
      68:	11 24       	eor	r1, r1
      6a:	1f be       	out	0x3f, r1	; 63
      6c:	cf ef       	ldi	r28, 0xFF	; 255
      6e:	d8 e0       	ldi	r29, 0x08	; 8
      70:	de bf       	out	0x3e, r29	; 62
      72:	cd bf       	out	0x3d, r28	; 61

00000074 <__do_copy_data>:
      74:	14 e0       	ldi	r17, 0x04	; 4
      76:	a0 e0       	ldi	r26, 0x00	; 0
      78:	b1 e0       	ldi	r27, 0x01	; 1
      7a:	e0 e1       	ldi	r30, 0x10	; 16
      7c:	f2 e2       	ldi	r31, 0x22	; 34
      7e:	02 c0       	rjmp	.+4      	; 0x84 <__do_copy_data+0x10>
      80:	05 90       	lpm	r0, Z+
      82:	0d 92       	st	X+, r0
      84:	aa 3a       	cpi	r26, 0xAA	; 170
      86:	b1 07       	cpc	r27, r17
      88:	d9 f7       	brne	.-10     	; 0x80 <__do_copy_data+0xc>

0000008a <__do_clear_bss>:
      8a:	25 e0       	ldi	r18, 0x05	; 5
      8c:	aa ea       	ldi	r26, 0xAA	; 170
      8e:	b4 e0       	ldi	r27, 0x04	; 4
      90:	01 c0       	rjmp	.+2      	; 0x94 <.do_clear_bss_start>

00000092 <.do_clear_bss_loop>:
      92:	1d 92       	st	X+, r1

00000094 <.do_clear_bss_start>:
      94:	ab 3a       	cpi	r26, 0xAB	; 171
      96:	b2 07       	cpc	r27, r18
      98:	e1 f7       	brne	.-8      	; 0x92 <.do_clear_bss_loop>
      9a:	0e 94 90 09 	call	0x1320	; 0x1320 <main>
      9e:	0c 94 06 11 	jmp	0x220c	; 0x220c <_exit>

000000a2 <__bad_interrupt>:
      a2:	0c 94 00 00 	jmp	0	; 0x0 <__vectors>

000000a6 <_ZN6BME2804initEv>:
			 p_i2c->read(BME280_ADDR, BME280_CTRL_MEAS) | BME280_NORMAL_MODE);
			break;
		case SLEEP:
		default:
			stat = p_i2c->write(BME280_ADDR, BME280_CTRL_MEAS,
			 p_i2c->read(BME280_ADDR, BME280_CTRL_MEAS) | BME280_SLEEP_MODE);
      a6:	cf 93       	push	r28
      a8:	df 93       	push	r29
      aa:	ec 01       	movw	r28, r24
      ac:	21 e0       	ldi	r18, 0x01	; 1
      ae:	42 ef       	ldi	r20, 0xF2	; 242
      b0:	6e ee       	ldi	r22, 0xEE	; 238
			break;
	}
	
	return stat;	
}
      b2:	88 81       	ld	r24, Y
      b4:	99 81       	ldd	r25, Y+1	; 0x01
      b6:	0e 94 c1 08 	call	0x1182	; 0x1182 <_ZN3i2c5writeEhhh>
      ba:	81 11       	cpse	r24, r1
      bc:	10 c0       	rjmp	.+32     	; 0xde <_ZN6BME2804initEv+0x38>
	 * 3. Turn off IIR Filter and set inactive duration to 1s for normal
	 *	  mode
	 */
	return (p_i2c->write(BME280_ADDR, BME280_CTRL_HUM, BME280_H_OVSM_1)
			|| p_i2c->write(BME280_ADDR, BME280_CTRL_MEAS, 
				BME280_P_OVSM_1 | BME280_T_OVSM_16 | BME280_NORMAL_MODE)
      be:	27 e3       	ldi	r18, 0x37	; 55
      c0:	44 ef       	ldi	r20, 0xF4	; 244
      c2:	6e ee       	ldi	r22, 0xEE	; 238
      c4:	88 81       	ld	r24, Y
      c6:	99 81       	ldd	r25, Y+1	; 0x01
      c8:	0e 94 c1 08 	call	0x1182	; 0x1182 <_ZN3i2c5writeEhhh>
	 *    by 1 and set mode to normal
	 * 3. Turn off IIR Filter and set inactive duration to 1s for normal
	 *	  mode
	 */
	return (p_i2c->write(BME280_ADDR, BME280_CTRL_HUM, BME280_H_OVSM_1)
			|| p_i2c->write(BME280_ADDR, BME280_CTRL_MEAS, 
      cc:	81 11       	cpse	r24, r1
      ce:	07 c0       	rjmp	.+14     	; 0xde <_ZN6BME2804initEv+0x38>
				BME280_P_OVSM_1 | BME280_T_OVSM_16 | BME280_NORMAL_MODE)
			|| p_i2c->write(BME280_ADDR, BME280_CONFIG, 
				BME280_TSB_F | BME280_FLTR_OFF | BME280_SPI_DIS));
      d0:	20 e0       	ldi	r18, 0x00	; 0
      d2:	45 ef       	ldi	r20, 0xF5	; 245
      d4:	6e ee       	ldi	r22, 0xEE	; 238
      d6:	88 81       	ld	r24, Y
      d8:	99 81       	ldd	r25, Y+1	; 0x01
      da:	0e 94 c1 08 	call	0x1182	; 0x1182 <_ZN3i2c5writeEhhh>
}
      de:	df 91       	pop	r29
      e0:	cf 91       	pop	r28
      e2:	08 95       	ret

000000e4 <_ZN6BME28016convert_pressureEv>:
 * Return:		int32_t - the human-readable pressure reading accurate to
 *							2 decimal places in Pascals. A value of 5382 is
 *							equal to 53.82 Pa
 ****************************************************************************/
int32_t BME280::convert_pressure (void)
{
      e4:	2f 92       	push	r2
      e6:	3f 92       	push	r3
      e8:	4f 92       	push	r4
      ea:	5f 92       	push	r5
      ec:	6f 92       	push	r6
      ee:	7f 92       	push	r7
      f0:	8f 92       	push	r8
      f2:	9f 92       	push	r9
      f4:	af 92       	push	r10
      f6:	bf 92       	push	r11
      f8:	cf 92       	push	r12
      fa:	df 92       	push	r13
      fc:	ef 92       	push	r14
      fe:	ff 92       	push	r15
     100:	0f 93       	push	r16
     102:	1f 93       	push	r17
     104:	cf 93       	push	r28
     106:	df 93       	push	r29
     108:	cd b7       	in	r28, 0x3d	; 61
     10a:	de b7       	in	r29, 0x3e	; 62
     10c:	a0 97       	sbiw	r28, 0x20	; 32
     10e:	0f b6       	in	r0, 0x3f	; 63
     110:	f8 94       	cli
     112:	de bf       	out	0x3e, r29	; 62
     114:	0f be       	out	0x3f, r0	; 63
     116:	cd bf       	out	0x3d, r28	; 61
     118:	98 a3       	std	Y+32, r25	; 0x20
     11a:	8f 8f       	std	Y+31, r24	; 0x1f
	int64_t var1, var2, p;
	
	raw_pres >>= 4;
     11c:	fc 01       	movw	r30, r24
     11e:	80 85       	ldd	r24, Z+8	; 0x08
     120:	91 85       	ldd	r25, Z+9	; 0x09
     122:	a2 85       	ldd	r26, Z+10	; 0x0a
     124:	b3 85       	ldd	r27, Z+11	; 0x0b
     126:	9c 01       	movw	r18, r24
     128:	ad 01       	movw	r20, r26
     12a:	68 94       	set
     12c:	13 f8       	bld	r1, 3
     12e:	55 95       	asr	r21
     130:	47 95       	ror	r20
     132:	37 95       	ror	r19
     134:	27 95       	ror	r18
     136:	16 94       	lsr	r1
     138:	d1 f7       	brne	.-12     	; 0x12e <_ZN6BME28016convert_pressureEv+0x4a>
     13a:	2d 87       	std	Y+13, r18	; 0x0d
     13c:	3e 87       	std	Y+14, r19	; 0x0e
     13e:	4f 87       	std	Y+15, r20	; 0x0f
     140:	58 8b       	std	Y+16, r21	; 0x10
     142:	20 87       	std	Z+8, r18	; 0x08
     144:	31 87       	std	Z+9, r19	; 0x09
     146:	42 87       	std	Z+10, r20	; 0x0a
     148:	53 87       	std	Z+11, r21	; 0x0b
	
	var1 =	((int64_t)cal.t_fine) - 128000;
     14a:	ef 5b       	subi	r30, 0xBF	; 191
     14c:	ff 4f       	sbci	r31, 0xFF	; 255
     14e:	80 81       	ld	r24, Z
     150:	91 81       	ldd	r25, Z+1	; 0x01
     152:	a2 81       	ldd	r26, Z+2	; 0x02
     154:	b3 81       	ldd	r27, Z+3	; 0x03
     156:	6c 01       	movw	r12, r24
     158:	7d 01       	movw	r14, r26
     15a:	ff 0c       	add	r15, r15
     15c:	cc 08       	sbc	r12, r12
     15e:	dc 2c       	mov	r13, r12
     160:	76 01       	movw	r14, r12
     162:	28 2f       	mov	r18, r24
     164:	39 2f       	mov	r19, r25
     166:	4a 2f       	mov	r20, r26
     168:	5b 2f       	mov	r21, r27
     16a:	6c 2d       	mov	r22, r12
     16c:	7c 2d       	mov	r23, r12
     16e:	8c 2d       	mov	r24, r12
     170:	9c 2d       	mov	r25, r12
     172:	34 5f       	subi	r19, 0xF4	; 244
     174:	41 40       	sbci	r20, 0x01	; 1
     176:	51 09       	sbc	r21, r1
     178:	61 09       	sbc	r22, r1
     17a:	71 09       	sbc	r23, r1
     17c:	81 09       	sbc	r24, r1
     17e:	91 09       	sbc	r25, r1
     180:	29 83       	std	Y+1, r18	; 0x01
     182:	3a 83       	std	Y+2, r19	; 0x02
     184:	4b 83       	std	Y+3, r20	; 0x03
     186:	5c 83       	std	Y+4, r21	; 0x04
     188:	6d 83       	std	Y+5, r22	; 0x05
     18a:	7e 83       	std	Y+6, r23	; 0x06
     18c:	8f 83       	std	Y+7, r24	; 0x07
     18e:	98 87       	std	Y+8, r25	; 0x08
	
	var2 =	var1 * var1 * (int64_t)cal.dig_P6;
     190:	a2 2e       	mov	r10, r18
     192:	b3 2e       	mov	r11, r19
     194:	c4 2e       	mov	r12, r20
     196:	d5 2e       	mov	r13, r21
     198:	e6 2e       	mov	r14, r22
     19a:	f7 2e       	mov	r15, r23
     19c:	08 2f       	mov	r16, r24
     19e:	19 2f       	mov	r17, r25
     1a0:	0e 94 bd 0c 	call	0x197a	; 0x197a <__muldi3>
     1a4:	29 87       	std	Y+9, r18	; 0x09
     1a6:	3a 87       	std	Y+10, r19	; 0x0a
     1a8:	4b 87       	std	Y+11, r20	; 0x0b
     1aa:	5c 87       	std	Y+12, r21	; 0x0c
     1ac:	6d 8b       	std	Y+21, r22	; 0x15
     1ae:	7e 8b       	std	Y+22, r23	; 0x16
     1b0:	8f 8b       	std	Y+23, r24	; 0x17
     1b2:	98 8f       	std	Y+24, r25	; 0x18
     1b4:	ef 8d       	ldd	r30, Y+31	; 0x1f
     1b6:	f8 a1       	ldd	r31, Y+32	; 0x20
     1b8:	f0 a9       	ldd	r31, Z+48	; 0x30
     1ba:	fc 8f       	std	Y+28, r31	; 0x1c
     1bc:	af 8d       	ldd	r26, Y+31	; 0x1f
     1be:	b8 a1       	ldd	r27, Y+32	; 0x20
     1c0:	d1 96       	adiw	r26, 0x31	; 49
     1c2:	bc 91       	ld	r27, X
     1c4:	b9 8f       	std	Y+25, r27	; 0x19
	var2 =	var2 + ((var1*(int64_t)cal.dig_P5) << 17);
     1c6:	ef 8d       	ldd	r30, Y+31	; 0x1f
     1c8:	f8 a1       	ldd	r31, Y+32	; 0x20
     1ca:	f6 a5       	ldd	r31, Z+46	; 0x2e
     1cc:	fd 8f       	std	Y+29, r31	; 0x1d
     1ce:	af 8d       	ldd	r26, Y+31	; 0x1f
     1d0:	b8 a1       	ldd	r27, Y+32	; 0x20
     1d2:	9f 96       	adiw	r26, 0x2f	; 47
     1d4:	bc 91       	ld	r27, X
     1d6:	ba 8f       	std	Y+26, r27	; 0x1a
	var2 =	var2 + (((int64_t)cal.dig_P4) << 35);
     1d8:	ef 8d       	ldd	r30, Y+31	; 0x1f
     1da:	f8 a1       	ldd	r31, Y+32	; 0x20
     1dc:	f4 a5       	ldd	r31, Z+44	; 0x2c
     1de:	fe 8f       	std	Y+30, r31	; 0x1e
     1e0:	af 8d       	ldd	r26, Y+31	; 0x1f
     1e2:	b8 a1       	ldd	r27, Y+32	; 0x20
     1e4:	9d 96       	adiw	r26, 0x2d	; 45
     1e6:	bc 91       	ld	r27, X
     1e8:	bb 8f       	std	Y+27, r27	; 0x1b
	
	var1 =	((var1 * var1 * (int64_t)cal.dig_P3) >> 8) +
			((var1 * (int64_t)cal.dig_P2)<<12);
     1ea:	ef 8d       	ldd	r30, Y+31	; 0x1f
     1ec:	f8 a1       	ldd	r31, Y+32	; 0x20
     1ee:	31 a5       	ldd	r19, Z+41	; 0x29
     1f0:	20 a5       	ldd	r18, Z+40	; 0x28
     1f2:	93 2f       	mov	r25, r19
     1f4:	99 0f       	add	r25, r25
     1f6:	99 0b       	sbc	r25, r25
     1f8:	49 2f       	mov	r20, r25
     1fa:	59 2f       	mov	r21, r25
     1fc:	69 2f       	mov	r22, r25
     1fe:	79 2f       	mov	r23, r25
     200:	89 2f       	mov	r24, r25
     202:	0e 94 bd 0c 	call	0x197a	; 0x197a <__muldi3>
     206:	0c e0       	ldi	r16, 0x0C	; 12
     208:	0e 94 ed 0d 	call	0x1bda	; 0x1bda <__ashldi3>
     20c:	22 2e       	mov	r2, r18
     20e:	33 2e       	mov	r3, r19
     210:	44 2e       	mov	r4, r20
     212:	55 2e       	mov	r5, r21
     214:	66 2e       	mov	r6, r22
     216:	77 2e       	mov	r7, r23
     218:	88 2e       	mov	r8, r24
     21a:	99 2e       	mov	r9, r25
	
	var2 =	var1 * var1 * (int64_t)cal.dig_P6;
	var2 =	var2 + ((var1*(int64_t)cal.dig_P5) << 17);
	var2 =	var2 + (((int64_t)cal.dig_P4) << 35);
	
	var1 =	((var1 * var1 * (int64_t)cal.dig_P3) >> 8) +
     21c:	af 8d       	ldd	r26, Y+31	; 0x1f
     21e:	b8 a1       	ldd	r27, Y+32	; 0x20
     220:	9b 96       	adiw	r26, 0x2b	; 43
     222:	bc 90       	ld	r11, X
     224:	9b 97       	sbiw	r26, 0x2b	; 43
     226:	9a 96       	adiw	r26, 0x2a	; 42
     228:	ac 90       	ld	r10, X
     22a:	1b 2d       	mov	r17, r11
     22c:	11 0f       	add	r17, r17
     22e:	11 0b       	sbc	r17, r17
     230:	c1 2e       	mov	r12, r17
     232:	d1 2e       	mov	r13, r17
     234:	e1 2e       	mov	r14, r17
     236:	f1 2e       	mov	r15, r17
     238:	01 2f       	mov	r16, r17
     23a:	29 85       	ldd	r18, Y+9	; 0x09
     23c:	3a 85       	ldd	r19, Y+10	; 0x0a
     23e:	4b 85       	ldd	r20, Y+11	; 0x0b
     240:	5c 85       	ldd	r21, Y+12	; 0x0c
     242:	6d 89       	ldd	r22, Y+21	; 0x15
     244:	7e 89       	ldd	r23, Y+22	; 0x16
     246:	8f 89       	ldd	r24, Y+23	; 0x17
     248:	98 8d       	ldd	r25, Y+24	; 0x18
     24a:	0e 94 bd 0c 	call	0x197a	; 0x197a <__muldi3>
     24e:	08 e0       	ldi	r16, 0x08	; 8
     250:	0e 94 06 0e 	call	0x1c0c	; 0x1c0c <__ashrdi3>
			((var1 * (int64_t)cal.dig_P2)<<12);
     254:	a2 2c       	mov	r10, r2
     256:	b3 2c       	mov	r11, r3
     258:	c4 2c       	mov	r12, r4
     25a:	d5 2c       	mov	r13, r5
     25c:	e6 2c       	mov	r14, r6
     25e:	f7 2c       	mov	r15, r7
     260:	08 2d       	mov	r16, r8
     262:	19 2d       	mov	r17, r9
     264:	0e 94 24 0e 	call	0x1c48	; 0x1c48 <__adddi3>
	var1 =	(((((int64_t)1) << 47) + var1)) * ((int64_t)cal.dig_P1) >> 33;
     268:	70 58       	subi	r23, 0x80	; 128
     26a:	8f 4f       	sbci	r24, 0xFF	; 255
     26c:	9f 4f       	sbci	r25, 0xFF	; 255
     26e:	ef 8d       	ldd	r30, Y+31	; 0x1f
     270:	f8 a1       	ldd	r31, Y+32	; 0x20
     272:	26 a0       	ldd	r2, Z+38	; 0x26
     274:	37 a0       	ldd	r3, Z+39	; 0x27
     276:	a2 2c       	mov	r10, r2
     278:	b3 2c       	mov	r11, r3
     27a:	c1 2c       	mov	r12, r1
     27c:	d1 2c       	mov	r13, r1
     27e:	e1 2c       	mov	r14, r1
     280:	f1 2c       	mov	r15, r1
     282:	00 e0       	ldi	r16, 0x00	; 0
     284:	10 e0       	ldi	r17, 0x00	; 0
     286:	0e 94 bd 0c 	call	0x197a	; 0x197a <__muldi3>
     28a:	01 e2       	ldi	r16, 0x21	; 33
     28c:	0e 94 06 0e 	call	0x1c0c	; 0x1c0c <__ashrdi3>
     290:	29 8b       	std	Y+17, r18	; 0x11
     292:	3a 8b       	std	Y+18, r19	; 0x12
     294:	4b 8b       	std	Y+19, r20	; 0x13
     296:	45 2e       	mov	r4, r21
     298:	56 2e       	mov	r5, r22
     29a:	7c 8b       	std	Y+20, r23	; 0x14
     29c:	38 2e       	mov	r3, r24
     29e:	29 2e       	mov	r2, r25
	 
	if (var1 == 0) {
     2a0:	65 2d       	mov	r22, r5
     2a2:	83 2d       	mov	r24, r3
     2a4:	92 2d       	mov	r25, r2
     2a6:	a0 e0       	ldi	r26, 0x00	; 0
     2a8:	0e 94 36 0e 	call	0x1c6c	; 0x1c6c <__cmpdi2_s8>
     2ac:	09 f4       	brne	.+2      	; 0x2b0 <_ZN6BME28016convert_pressureEv+0x1cc>
     2ae:	8f c1       	rjmp	.+798    	; 0x5ce <_ZN6BME28016convert_pressureEv+0x4ea>
	
	raw_pres >>= 4;
	
	var1 =	((int64_t)cal.t_fine) - 128000;
	
	var2 =	var1 * var1 * (int64_t)cal.dig_P6;
     2b0:	ac 8c       	ldd	r10, Y+28	; 0x1c
     2b2:	19 8d       	ldd	r17, Y+25	; 0x19
     2b4:	11 0f       	add	r17, r17
     2b6:	11 0b       	sbc	r17, r17
     2b8:	b9 8c       	ldd	r11, Y+25	; 0x19
     2ba:	c1 2e       	mov	r12, r17
     2bc:	d1 2e       	mov	r13, r17
     2be:	e1 2e       	mov	r14, r17
     2c0:	f1 2e       	mov	r15, r17
     2c2:	01 2f       	mov	r16, r17
     2c4:	29 85       	ldd	r18, Y+9	; 0x09
     2c6:	3a 85       	ldd	r19, Y+10	; 0x0a
     2c8:	4b 85       	ldd	r20, Y+11	; 0x0b
     2ca:	5c 85       	ldd	r21, Y+12	; 0x0c
     2cc:	6d 89       	ldd	r22, Y+21	; 0x15
     2ce:	7e 89       	ldd	r23, Y+22	; 0x16
     2d0:	8f 89       	ldd	r24, Y+23	; 0x17
     2d2:	98 8d       	ldd	r25, Y+24	; 0x18
     2d4:	0e 94 bd 0c 	call	0x197a	; 0x197a <__muldi3>
     2d8:	29 87       	std	Y+9, r18	; 0x09
     2da:	3a 87       	std	Y+10, r19	; 0x0a
     2dc:	4b 87       	std	Y+11, r20	; 0x0b
     2de:	75 2e       	mov	r7, r21
     2e0:	86 2e       	mov	r8, r22
     2e2:	97 2e       	mov	r9, r23
     2e4:	8c 87       	std	Y+12, r24	; 0x0c
     2e6:	69 2e       	mov	r6, r25
	var2 =	var2 + ((var1*(int64_t)cal.dig_P5) << 17);
     2e8:	2d 8d       	ldd	r18, Y+29	; 0x1d
     2ea:	9a 8d       	ldd	r25, Y+26	; 0x1a
     2ec:	99 0f       	add	r25, r25
     2ee:	99 0b       	sbc	r25, r25
     2f0:	a9 80       	ldd	r10, Y+1	; 0x01
     2f2:	ba 80       	ldd	r11, Y+2	; 0x02
     2f4:	cb 80       	ldd	r12, Y+3	; 0x03
     2f6:	dc 80       	ldd	r13, Y+4	; 0x04
     2f8:	ed 80       	ldd	r14, Y+5	; 0x05
     2fa:	fe 80       	ldd	r15, Y+6	; 0x06
     2fc:	0f 81       	ldd	r16, Y+7	; 0x07
     2fe:	18 85       	ldd	r17, Y+8	; 0x08
     300:	3a 8d       	ldd	r19, Y+26	; 0x1a
     302:	49 2f       	mov	r20, r25
     304:	59 2f       	mov	r21, r25
     306:	69 2f       	mov	r22, r25
     308:	79 2f       	mov	r23, r25
     30a:	89 2f       	mov	r24, r25
     30c:	0e 94 bd 0c 	call	0x197a	; 0x197a <__muldi3>
     310:	01 e1       	ldi	r16, 0x11	; 17
     312:	0e 94 ed 0d 	call	0x1bda	; 0x1bda <__ashldi3>
     316:	a9 84       	ldd	r10, Y+9	; 0x09
     318:	ba 84       	ldd	r11, Y+10	; 0x0a
     31a:	cb 84       	ldd	r12, Y+11	; 0x0b
     31c:	d7 2c       	mov	r13, r7
     31e:	e8 2c       	mov	r14, r8
     320:	f9 2c       	mov	r15, r9
     322:	0c 85       	ldd	r16, Y+12	; 0x0c
     324:	16 2d       	mov	r17, r6
     326:	0e 94 24 0e 	call	0x1c48	; 0x1c48 <__adddi3>
     32a:	a2 2e       	mov	r10, r18
     32c:	b3 2e       	mov	r11, r19
     32e:	c4 2e       	mov	r12, r20
     330:	d5 2e       	mov	r13, r21
     332:	e6 2e       	mov	r14, r22
     334:	f7 2e       	mov	r15, r23
     336:	e8 2f       	mov	r30, r24
     338:	19 2f       	mov	r17, r25
	 
	if (var1 == 0) {
		return 0;  // avoid exception caused by division by zero 
	}
	
	p = 1048576 - raw_pres;
     33a:	80 e0       	ldi	r24, 0x00	; 0
     33c:	90 e0       	ldi	r25, 0x00	; 0
     33e:	a0 e1       	ldi	r26, 0x10	; 16
     340:	b0 e0       	ldi	r27, 0x00	; 0
     342:	2d 85       	ldd	r18, Y+13	; 0x0d
     344:	3e 85       	ldd	r19, Y+14	; 0x0e
     346:	4f 85       	ldd	r20, Y+15	; 0x0f
     348:	58 89       	ldd	r21, Y+16	; 0x10
     34a:	82 1b       	sub	r24, r18
     34c:	93 0b       	sbc	r25, r19
     34e:	a4 0b       	sbc	r26, r20
     350:	b5 0b       	sbc	r27, r21
     352:	3c 01       	movw	r6, r24
     354:	4d 01       	movw	r8, r26
     356:	99 0c       	add	r9, r9
     358:	66 08       	sbc	r6, r6
     35a:	76 2c       	mov	r7, r6
     35c:	43 01       	movw	r8, r6
	p = (((p << 31) - var2) * 3125) / var1;
     35e:	28 2f       	mov	r18, r24
     360:	39 2f       	mov	r19, r25
     362:	4a 2f       	mov	r20, r26
     364:	5b 2f       	mov	r21, r27
     366:	66 2d       	mov	r22, r6
     368:	76 2d       	mov	r23, r6
     36a:	86 2d       	mov	r24, r6
     36c:	96 2d       	mov	r25, r6
     36e:	0f e1       	ldi	r16, 0x1F	; 31
     370:	0e 94 ed 0d 	call	0x1bda	; 0x1bda <__ashldi3>
     374:	82 2e       	mov	r8, r18
     376:	93 2e       	mov	r9, r19
     378:	64 2e       	mov	r6, r20
     37a:	75 2e       	mov	r7, r21
     37c:	b6 2f       	mov	r27, r22
     37e:	a7 2f       	mov	r26, r23
     380:	8a 83       	std	Y+2, r24	; 0x02
     382:	f9 2f       	mov	r31, r25
	
	var1 =	((int64_t)cal.t_fine) - 128000;
	
	var2 =	var1 * var1 * (int64_t)cal.dig_P6;
	var2 =	var2 + ((var1*(int64_t)cal.dig_P5) << 17);
	var2 =	var2 + (((int64_t)cal.dig_P4) << 35);
     384:	2e 8d       	ldd	r18, Y+30	; 0x1e
     386:	9b 8d       	ldd	r25, Y+27	; 0x1b
     388:	99 0f       	add	r25, r25
     38a:	99 0b       	sbc	r25, r25
     38c:	3b 8d       	ldd	r19, Y+27	; 0x1b
     38e:	49 2f       	mov	r20, r25
     390:	59 2f       	mov	r21, r25
     392:	69 2f       	mov	r22, r25
     394:	79 2f       	mov	r23, r25
     396:	89 2f       	mov	r24, r25
     398:	03 e2       	ldi	r16, 0x23	; 35
     39a:	0e 94 ed 0d 	call	0x1bda	; 0x1bda <__ashldi3>
     39e:	0e 2f       	mov	r16, r30
     3a0:	0e 94 24 0e 	call	0x1c48	; 0x1c48 <__adddi3>
     3a4:	a2 2e       	mov	r10, r18
     3a6:	b3 2e       	mov	r11, r19
     3a8:	c4 2e       	mov	r12, r20
     3aa:	d5 2e       	mov	r13, r21
     3ac:	e6 2e       	mov	r14, r22
     3ae:	f7 2e       	mov	r15, r23
     3b0:	08 2f       	mov	r16, r24
     3b2:	19 2f       	mov	r17, r25
	if (var1 == 0) {
		return 0;  // avoid exception caused by division by zero 
	}
	
	p = 1048576 - raw_pres;
	p = (((p << 31) - var2) * 3125) / var1;
     3b4:	28 2d       	mov	r18, r8
     3b6:	39 2d       	mov	r19, r9
     3b8:	46 2d       	mov	r20, r6
     3ba:	57 2d       	mov	r21, r7
     3bc:	6b 2f       	mov	r22, r27
     3be:	7a 2f       	mov	r23, r26
     3c0:	8a 81       	ldd	r24, Y+2	; 0x02
     3c2:	9f 2f       	mov	r25, r31
     3c4:	0e 94 2d 0e 	call	0x1c5a	; 0x1c5a <__subdi3>
     3c8:	82 2e       	mov	r8, r18
     3ca:	93 2e       	mov	r9, r19
     3cc:	64 2e       	mov	r6, r20
     3ce:	75 2e       	mov	r7, r21
     3d0:	b6 2f       	mov	r27, r22
     3d2:	a7 2f       	mov	r26, r23
     3d4:	e8 2f       	mov	r30, r24
     3d6:	f9 2f       	mov	r31, r25
     3d8:	03 e0       	ldi	r16, 0x03	; 3
     3da:	0e 94 ed 0d 	call	0x1bda	; 0x1bda <__ashldi3>
     3de:	a8 2c       	mov	r10, r8
     3e0:	b9 2c       	mov	r11, r9
     3e2:	c6 2c       	mov	r12, r6
     3e4:	d7 2c       	mov	r13, r7
     3e6:	eb 2e       	mov	r14, r27
     3e8:	fa 2e       	mov	r15, r26
     3ea:	0e 2f       	mov	r16, r30
     3ec:	1f 2f       	mov	r17, r31
     3ee:	0e 94 2d 0e 	call	0x1c5a	; 0x1c5a <__subdi3>
     3f2:	a2 2e       	mov	r10, r18
     3f4:	b3 2e       	mov	r11, r19
     3f6:	c4 2e       	mov	r12, r20
     3f8:	d5 2e       	mov	r13, r21
     3fa:	e6 2e       	mov	r14, r22
     3fc:	f7 2e       	mov	r15, r23
     3fe:	89 83       	std	Y+1, r24	; 0x01
     400:	19 2f       	mov	r17, r25
     402:	03 e0       	ldi	r16, 0x03	; 3
     404:	0e 94 ed 0d 	call	0x1bda	; 0x1bda <__ashldi3>
     408:	09 81       	ldd	r16, Y+1	; 0x01
     40a:	0e 94 2d 0e 	call	0x1c5a	; 0x1c5a <__subdi3>
     40e:	03 e0       	ldi	r16, 0x03	; 3
     410:	0e 94 ed 0d 	call	0x1bda	; 0x1bda <__ashldi3>
     414:	a8 2c       	mov	r10, r8
     416:	b9 2c       	mov	r11, r9
     418:	c6 2c       	mov	r12, r6
     41a:	d7 2c       	mov	r13, r7
     41c:	eb 2e       	mov	r14, r27
     41e:	fa 2e       	mov	r15, r26
     420:	0e 2f       	mov	r16, r30
     422:	1f 2f       	mov	r17, r31
     424:	0e 94 2d 0e 	call	0x1c5a	; 0x1c5a <__subdi3>
     428:	02 e0       	ldi	r16, 0x02	; 2
     42a:	0e 94 ed 0d 	call	0x1bda	; 0x1bda <__ashldi3>
     42e:	0e 2f       	mov	r16, r30
     430:	0e 94 2d 0e 	call	0x1c5a	; 0x1c5a <__subdi3>
     434:	01 e0       	ldi	r16, 0x01	; 1
     436:	0e 94 ed 0d 	call	0x1bda	; 0x1bda <__ashldi3>
     43a:	0e 2f       	mov	r16, r30
     43c:	0e 94 2d 0e 	call	0x1c5a	; 0x1c5a <__subdi3>
     440:	a9 88       	ldd	r10, Y+17	; 0x11
     442:	ba 88       	ldd	r11, Y+18	; 0x12
     444:	cb 88       	ldd	r12, Y+19	; 0x13
     446:	d4 2c       	mov	r13, r4
     448:	e5 2c       	mov	r14, r5
     44a:	fc 88       	ldd	r15, Y+20	; 0x14
     44c:	03 2d       	mov	r16, r3
     44e:	12 2d       	mov	r17, r2
     450:	0e 94 18 0d 	call	0x1a30	; 0x1a30 <__divdi3>
     454:	29 83       	std	Y+1, r18	; 0x01
     456:	3a 83       	std	Y+2, r19	; 0x02
     458:	4b 83       	std	Y+3, r20	; 0x03
     45a:	5c 83       	std	Y+4, r21	; 0x04
     45c:	6d 83       	std	Y+5, r22	; 0x05
     45e:	7e 83       	std	Y+6, r23	; 0x06
     460:	8f 83       	std	Y+7, r24	; 0x07
     462:	98 87       	std	Y+8, r25	; 0x08
	
	var1 = (((int64_t)cal.dig_P9) * (p >> 13) * (p >> 13)) >> 25;
     464:	0d e0       	ldi	r16, 0x0D	; 13
     466:	0e 94 06 0e 	call	0x1c0c	; 0x1c0c <__ashrdi3>
     46a:	82 2e       	mov	r8, r18
     46c:	93 2e       	mov	r9, r19
     46e:	74 2e       	mov	r7, r20
     470:	65 2e       	mov	r6, r21
     472:	56 2e       	mov	r5, r22
     474:	47 2e       	mov	r4, r23
     476:	38 2e       	mov	r3, r24
     478:	29 2e       	mov	r2, r25
     47a:	af 8d       	ldd	r26, Y+31	; 0x1f
     47c:	b8 a1       	ldd	r27, Y+32	; 0x20
     47e:	d7 96       	adiw	r26, 0x37	; 55
     480:	3c 91       	ld	r19, X
     482:	d7 97       	sbiw	r26, 0x37	; 55
     484:	d6 96       	adiw	r26, 0x36	; 54
     486:	2c 91       	ld	r18, X
     488:	93 2f       	mov	r25, r19
     48a:	99 0f       	add	r25, r25
     48c:	99 0b       	sbc	r25, r25
     48e:	a8 2c       	mov	r10, r8
     490:	b9 2c       	mov	r11, r9
     492:	c7 2c       	mov	r12, r7
     494:	d6 2c       	mov	r13, r6
     496:	e5 2c       	mov	r14, r5
     498:	f4 2c       	mov	r15, r4
     49a:	03 2d       	mov	r16, r3
     49c:	12 2d       	mov	r17, r2
     49e:	49 2f       	mov	r20, r25
     4a0:	59 2f       	mov	r21, r25
     4a2:	69 2f       	mov	r22, r25
     4a4:	79 2f       	mov	r23, r25
     4a6:	89 2f       	mov	r24, r25
     4a8:	0e 94 bd 0c 	call	0x197a	; 0x197a <__muldi3>
     4ac:	a2 2e       	mov	r10, r18
     4ae:	b3 2e       	mov	r11, r19
     4b0:	c4 2e       	mov	r12, r20
     4b2:	d5 2e       	mov	r13, r21
     4b4:	e6 2e       	mov	r14, r22
     4b6:	f7 2e       	mov	r15, r23
     4b8:	08 2f       	mov	r16, r24
     4ba:	19 2f       	mov	r17, r25
     4bc:	28 2d       	mov	r18, r8
     4be:	39 2d       	mov	r19, r9
     4c0:	47 2d       	mov	r20, r7
     4c2:	56 2d       	mov	r21, r6
     4c4:	65 2d       	mov	r22, r5
     4c6:	74 2d       	mov	r23, r4
     4c8:	83 2d       	mov	r24, r3
     4ca:	92 2d       	mov	r25, r2
     4cc:	0e 94 bd 0c 	call	0x197a	; 0x197a <__muldi3>
     4d0:	09 e1       	ldi	r16, 0x19	; 25
     4d2:	0e 94 06 0e 	call	0x1c0c	; 0x1c0c <__ashrdi3>
     4d6:	a2 2e       	mov	r10, r18
     4d8:	b3 2e       	mov	r11, r19
     4da:	c4 2e       	mov	r12, r20
     4dc:	d5 2e       	mov	r13, r21
     4de:	e6 2e       	mov	r14, r22
     4e0:	f7 2e       	mov	r15, r23
     4e2:	08 2f       	mov	r16, r24
     4e4:	19 2f       	mov	r17, r25
	var2 = (((int64_t)cal.dig_P8) * p) >> 19; 
	
	p = ((p + var1 + var2) >> 8) + (((int64_t)cal.dig_P7) << 4);
     4e6:	29 81       	ldd	r18, Y+1	; 0x01
     4e8:	3a 81       	ldd	r19, Y+2	; 0x02
     4ea:	4b 81       	ldd	r20, Y+3	; 0x03
     4ec:	5c 81       	ldd	r21, Y+4	; 0x04
     4ee:	6d 81       	ldd	r22, Y+5	; 0x05
     4f0:	7e 81       	ldd	r23, Y+6	; 0x06
     4f2:	8f 81       	ldd	r24, Y+7	; 0x07
     4f4:	98 85       	ldd	r25, Y+8	; 0x08
     4f6:	0e 94 24 0e 	call	0x1c48	; 0x1c48 <__adddi3>
     4fa:	22 2e       	mov	r2, r18
     4fc:	33 2e       	mov	r3, r19
     4fe:	44 2e       	mov	r4, r20
     500:	55 2e       	mov	r5, r21
     502:	66 2e       	mov	r6, r22
     504:	77 2e       	mov	r7, r23
     506:	88 2e       	mov	r8, r24
     508:	99 2e       	mov	r9, r25
	
	p = 1048576 - raw_pres;
	p = (((p << 31) - var2) * 3125) / var1;
	
	var1 = (((int64_t)cal.dig_P9) * (p >> 13) * (p >> 13)) >> 25;
	var2 = (((int64_t)cal.dig_P8) * p) >> 19; 
     50a:	ef 8d       	ldd	r30, Y+31	; 0x1f
     50c:	f8 a1       	ldd	r31, Y+32	; 0x20
     50e:	35 a9       	ldd	r19, Z+53	; 0x35
     510:	24 a9       	ldd	r18, Z+52	; 0x34
     512:	93 2f       	mov	r25, r19
     514:	99 0f       	add	r25, r25
     516:	99 0b       	sbc	r25, r25
     518:	a9 80       	ldd	r10, Y+1	; 0x01
     51a:	ba 80       	ldd	r11, Y+2	; 0x02
     51c:	cb 80       	ldd	r12, Y+3	; 0x03
     51e:	dc 80       	ldd	r13, Y+4	; 0x04
     520:	ed 80       	ldd	r14, Y+5	; 0x05
     522:	fe 80       	ldd	r15, Y+6	; 0x06
     524:	0f 81       	ldd	r16, Y+7	; 0x07
     526:	18 85       	ldd	r17, Y+8	; 0x08
     528:	49 2f       	mov	r20, r25
     52a:	59 2f       	mov	r21, r25
     52c:	69 2f       	mov	r22, r25
     52e:	79 2f       	mov	r23, r25
     530:	89 2f       	mov	r24, r25
     532:	0e 94 bd 0c 	call	0x197a	; 0x197a <__muldi3>
     536:	03 e1       	ldi	r16, 0x13	; 19
     538:	0e 94 06 0e 	call	0x1c0c	; 0x1c0c <__ashrdi3>
     53c:	a2 2e       	mov	r10, r18
     53e:	b3 2e       	mov	r11, r19
     540:	c4 2e       	mov	r12, r20
     542:	d5 2e       	mov	r13, r21
     544:	e6 2e       	mov	r14, r22
     546:	f7 2e       	mov	r15, r23
     548:	08 2f       	mov	r16, r24
     54a:	19 2f       	mov	r17, r25
	
	p = ((p + var1 + var2) >> 8) + (((int64_t)cal.dig_P7) << 4);
     54c:	22 2d       	mov	r18, r2
     54e:	33 2d       	mov	r19, r3
     550:	44 2d       	mov	r20, r4
     552:	55 2d       	mov	r21, r5
     554:	66 2d       	mov	r22, r6
     556:	77 2d       	mov	r23, r7
     558:	88 2d       	mov	r24, r8
     55a:	99 2d       	mov	r25, r9
     55c:	0e 94 24 0e 	call	0x1c48	; 0x1c48 <__adddi3>
     560:	08 e0       	ldi	r16, 0x08	; 8
     562:	0e 94 06 0e 	call	0x1c0c	; 0x1c0c <__ashrdi3>
     566:	52 2e       	mov	r5, r18
     568:	63 2e       	mov	r6, r19
     56a:	74 2e       	mov	r7, r20
     56c:	85 2e       	mov	r8, r21
     56e:	96 2e       	mov	r9, r22
     570:	f7 2f       	mov	r31, r23
     572:	e8 2f       	mov	r30, r24
     574:	49 2e       	mov	r4, r25
     576:	af 8d       	ldd	r26, Y+31	; 0x1f
     578:	b8 a1       	ldd	r27, Y+32	; 0x20
     57a:	d3 96       	adiw	r26, 0x33	; 51
     57c:	3c 91       	ld	r19, X
     57e:	d3 97       	sbiw	r26, 0x33	; 51
     580:	d2 96       	adiw	r26, 0x32	; 50
     582:	2c 91       	ld	r18, X
     584:	93 2f       	mov	r25, r19
     586:	99 0f       	add	r25, r25
     588:	99 0b       	sbc	r25, r25
     58a:	49 2f       	mov	r20, r25
     58c:	59 2f       	mov	r21, r25
     58e:	69 2f       	mov	r22, r25
     590:	79 2f       	mov	r23, r25
     592:	89 2f       	mov	r24, r25
     594:	04 e0       	ldi	r16, 0x04	; 4
     596:	0e 94 ed 0d 	call	0x1bda	; 0x1bda <__ashldi3>
     59a:	a2 2e       	mov	r10, r18
     59c:	b3 2e       	mov	r11, r19
     59e:	c4 2e       	mov	r12, r20
     5a0:	d5 2e       	mov	r13, r21
     5a2:	e6 2e       	mov	r14, r22
     5a4:	f7 2e       	mov	r15, r23
     5a6:	08 2f       	mov	r16, r24
     5a8:	19 2f       	mov	r17, r25
     5aa:	25 2d       	mov	r18, r5
     5ac:	36 2d       	mov	r19, r6
     5ae:	47 2d       	mov	r20, r7
     5b0:	58 2d       	mov	r21, r8
     5b2:	69 2d       	mov	r22, r9
     5b4:	7f 2f       	mov	r23, r31
     5b6:	8e 2f       	mov	r24, r30
     5b8:	94 2d       	mov	r25, r4
     5ba:	0e 94 24 0e 	call	0x1c48	; 0x1c48 <__adddi3>
	 
	return p >> 8;
     5be:	08 e0       	ldi	r16, 0x08	; 8
     5c0:	0e 94 06 0e 	call	0x1c0c	; 0x1c0c <__ashrdi3>
     5c4:	62 2f       	mov	r22, r18
     5c6:	73 2f       	mov	r23, r19
     5c8:	84 2f       	mov	r24, r20
     5ca:	95 2f       	mov	r25, r21
     5cc:	04 c0       	rjmp	.+8      	; 0x5d6 <_ZN6BME28016convert_pressureEv+0x4f2>
	var1 =	((var1 * var1 * (int64_t)cal.dig_P3) >> 8) +
			((var1 * (int64_t)cal.dig_P2)<<12);
	var1 =	(((((int64_t)1) << 47) + var1)) * ((int64_t)cal.dig_P1) >> 33;
	 
	if (var1 == 0) {
		return 0;  // avoid exception caused by division by zero 
     5ce:	60 e0       	ldi	r22, 0x00	; 0
     5d0:	70 e0       	ldi	r23, 0x00	; 0
     5d2:	80 e0       	ldi	r24, 0x00	; 0
     5d4:	90 e0       	ldi	r25, 0x00	; 0
	var2 = (((int64_t)cal.dig_P8) * p) >> 19; 
	
	p = ((p + var1 + var2) >> 8) + (((int64_t)cal.dig_P7) << 4);
	 
	return p >> 8;
}
     5d6:	a0 96       	adiw	r28, 0x20	; 32
     5d8:	0f b6       	in	r0, 0x3f	; 63
     5da:	f8 94       	cli
     5dc:	de bf       	out	0x3e, r29	; 62
     5de:	0f be       	out	0x3f, r0	; 63
     5e0:	cd bf       	out	0x3d, r28	; 61
     5e2:	df 91       	pop	r29
     5e4:	cf 91       	pop	r28
     5e6:	1f 91       	pop	r17
     5e8:	0f 91       	pop	r16
     5ea:	ff 90       	pop	r15
     5ec:	ef 90       	pop	r14
     5ee:	df 90       	pop	r13
     5f0:	cf 90       	pop	r12
     5f2:	bf 90       	pop	r11
     5f4:	af 90       	pop	r10
     5f6:	9f 90       	pop	r9
     5f8:	8f 90       	pop	r8
     5fa:	7f 90       	pop	r7
     5fc:	6f 90       	pop	r6
     5fe:	5f 90       	pop	r5
     600:	4f 90       	pop	r4
     602:	3f 90       	pop	r3
     604:	2f 90       	pop	r2
     606:	08 95       	ret

00000608 <_ZN6BME28019convert_temperatureEv>:
 * Return:		int32_t - the human-readable temperature reading accurate to
 *							2 decimal places in Centigrade. A value of 5382 is
 *							equal to 53.82 degrees Centigrade
 ****************************************************************************/
int32_t BME280::convert_temperature (void)
{
     608:	8f 92       	push	r8
     60a:	9f 92       	push	r9
     60c:	af 92       	push	r10
     60e:	bf 92       	push	r11
     610:	cf 92       	push	r12
     612:	df 92       	push	r13
     614:	ef 92       	push	r14
     616:	ff 92       	push	r15
     618:	0f 93       	push	r16
     61a:	1f 93       	push	r17
     61c:	fc 01       	movw	r30, r24
	int32_t var1 = 0;
	int32_t var2 = 0;
	
	temperature = 0;
     61e:	10 8e       	std	Z+24, r1	; 0x18
     620:	11 8e       	std	Z+25, r1	; 0x19
     622:	12 8e       	std	Z+26, r1	; 0x1a
     624:	13 8e       	std	Z+27, r1	; 0x1b
	
	/* calculate x1 */
	var1 =	((((raw_temp>>3) - ((int32_t)cal.dig_T1 <<1))) *
     626:	84 85       	ldd	r24, Z+12	; 0x0c
     628:	95 85       	ldd	r25, Z+13	; 0x0d
     62a:	a6 85       	ldd	r26, Z+14	; 0x0e
     62c:	b7 85       	ldd	r27, Z+15	; 0x0f
     62e:	40 a1       	ldd	r20, Z+32	; 0x20
     630:	51 a1       	ldd	r21, Z+33	; 0x21
     632:	60 e0       	ldi	r22, 0x00	; 0
     634:	70 e0       	ldi	r23, 0x00	; 0
		 ((int32_t)cal.dig_T2)) >> 11;
	
	/* calculate x2 */
	var2 =	(((((raw_temp>>4) - ((int32_t)cal.dig_T1)) *
			   ((raw_temp>>4) - ((int32_t)cal.dig_T1))) >> 12) *
     636:	4c 01       	movw	r8, r24
     638:	5d 01       	movw	r10, r26
     63a:	68 94       	set
     63c:	13 f8       	bld	r1, 3
     63e:	b5 94       	asr	r11
     640:	a7 94       	ror	r10
     642:	97 94       	ror	r9
     644:	87 94       	ror	r8
     646:	16 94       	lsr	r1
     648:	d1 f7       	brne	.-12     	; 0x63e <_ZN6BME28019convert_temperatureEv+0x36>
     64a:	84 1a       	sub	r8, r20
     64c:	95 0a       	sbc	r9, r21
     64e:	a6 0a       	sbc	r10, r22
     650:	b7 0a       	sbc	r11, r23
	int32_t var2 = 0;
	
	temperature = 0;
	
	/* calculate x1 */
	var1 =	((((raw_temp>>3) - ((int32_t)cal.dig_T1 <<1))) *
     652:	68 94       	set
     654:	12 f8       	bld	r1, 2
     656:	b5 95       	asr	r27
     658:	a7 95       	ror	r26
     65a:	97 95       	ror	r25
     65c:	87 95       	ror	r24
     65e:	16 94       	lsr	r1
     660:	d1 f7       	brne	.-12     	; 0x656 <_ZN6BME28019convert_temperatureEv+0x4e>
     662:	44 0f       	add	r20, r20
     664:	55 1f       	adc	r21, r21
     666:	66 1f       	adc	r22, r22
     668:	77 1f       	adc	r23, r23
     66a:	7c 01       	movw	r14, r24
     66c:	8d 01       	movw	r16, r26
     66e:	e4 1a       	sub	r14, r20
     670:	f5 0a       	sbc	r15, r21
     672:	06 0b       	sbc	r16, r22
     674:	17 0b       	sbc	r17, r23
     676:	a8 01       	movw	r20, r16
     678:	97 01       	movw	r18, r14
     67a:	a2 a1       	ldd	r26, Z+34	; 0x22
     67c:	b3 a1       	ldd	r27, Z+35	; 0x23
     67e:	0e 94 b5 0c 	call	0x196a	; 0x196a <__mulshisi3>
		 ((int32_t)cal.dig_T2)) >> 11;
     682:	6b 01       	movw	r12, r22
     684:	7c 01       	movw	r14, r24
     686:	0b 2e       	mov	r0, r27
     688:	bb e0       	ldi	r27, 0x0B	; 11
     68a:	f5 94       	asr	r15
     68c:	e7 94       	ror	r14
     68e:	d7 94       	ror	r13
     690:	c7 94       	ror	r12
     692:	ba 95       	dec	r27
     694:	d1 f7       	brne	.-12     	; 0x68a <_ZN6BME28019convert_temperatureEv+0x82>
     696:	b0 2d       	mov	r27, r0
	
	/* calculate x2 */
	var2 =	(((((raw_temp>>4) - ((int32_t)cal.dig_T1)) *
     698:	a5 01       	movw	r20, r10
     69a:	94 01       	movw	r18, r8
     69c:	c5 01       	movw	r24, r10
     69e:	b4 01       	movw	r22, r8
     6a0:	0e 94 45 0c 	call	0x188a	; 0x188a <__mulsi3>
			   ((raw_temp>>4) - ((int32_t)cal.dig_T1))) >> 12) *
     6a4:	9b 01       	movw	r18, r22
     6a6:	ac 01       	movw	r20, r24
     6a8:	01 2e       	mov	r0, r17
     6aa:	1c e0       	ldi	r17, 0x0C	; 12
     6ac:	55 95       	asr	r21
     6ae:	47 95       	ror	r20
     6b0:	37 95       	ror	r19
     6b2:	27 95       	ror	r18
     6b4:	1a 95       	dec	r17
     6b6:	d1 f7       	brne	.-12     	; 0x6ac <_ZN6BME28019convert_temperatureEv+0xa4>
     6b8:	10 2d       	mov	r17, r0
     6ba:	a4 a1       	ldd	r26, Z+36	; 0x24
     6bc:	b5 a1       	ldd	r27, Z+37	; 0x25
     6be:	0e 94 b5 0c 	call	0x196a	; 0x196a <__mulshisi3>
			((int32_t)cal.dig_T3)) >> 14;
     6c2:	ab 01       	movw	r20, r22
     6c4:	bc 01       	movw	r22, r24
     6c6:	03 2e       	mov	r0, r19
     6c8:	3e e0       	ldi	r19, 0x0E	; 14
     6ca:	75 95       	asr	r23
     6cc:	67 95       	ror	r22
     6ce:	57 95       	ror	r21
     6d0:	47 95       	ror	r20
     6d2:	3a 95       	dec	r19
     6d4:	d1 f7       	brne	.-12     	; 0x6ca <_ZN6BME28019convert_temperatureEv+0xc2>
     6d6:	30 2d       	mov	r19, r0
	
	cal.t_fine = var1 + var2;
     6d8:	4c 0d       	add	r20, r12
     6da:	5d 1d       	adc	r21, r13
     6dc:	6e 1d       	adc	r22, r14
     6de:	7f 1d       	adc	r23, r15
     6e0:	df 01       	movw	r26, r30
     6e2:	af 5b       	subi	r26, 0xBF	; 191
     6e4:	bf 4f       	sbci	r27, 0xFF	; 255
     6e6:	4d 93       	st	X+, r20
     6e8:	5d 93       	st	X+, r21
     6ea:	6d 93       	st	X+, r22
     6ec:	7c 93       	st	X, r23
     6ee:	13 97       	sbiw	r26, 0x03	; 3
	
	return (((cal.t_fine * 5 + 128) >> 8) - temp_cal);
     6f0:	6a 01       	movw	r12, r20
     6f2:	7b 01       	movw	r14, r22
     6f4:	cc 0c       	add	r12, r12
     6f6:	dd 1c       	adc	r13, r13
     6f8:	ee 1c       	adc	r14, r14
     6fa:	ff 1c       	adc	r15, r15
     6fc:	cc 0c       	add	r12, r12
     6fe:	dd 1c       	adc	r13, r13
     700:	ee 1c       	adc	r14, r14
     702:	ff 1c       	adc	r15, r15
     704:	d7 01       	movw	r26, r14
     706:	c6 01       	movw	r24, r12
     708:	84 0f       	add	r24, r20
     70a:	95 1f       	adc	r25, r21
     70c:	a6 1f       	adc	r26, r22
     70e:	b7 1f       	adc	r27, r23
     710:	80 58       	subi	r24, 0x80	; 128
     712:	9f 4f       	sbci	r25, 0xFF	; 255
     714:	af 4f       	sbci	r26, 0xFF	; 255
     716:	bf 4f       	sbci	r27, 0xFF	; 255
     718:	89 2f       	mov	r24, r25
     71a:	9a 2f       	mov	r25, r26
     71c:	ab 2f       	mov	r26, r27
     71e:	bb 27       	eor	r27, r27
     720:	a7 fd       	sbrc	r26, 7
     722:	ba 95       	dec	r27
     724:	c4 80       	ldd	r12, Z+4	; 0x04
     726:	d5 80       	ldd	r13, Z+5	; 0x05
     728:	e6 80       	ldd	r14, Z+6	; 0x06
     72a:	f7 80       	ldd	r15, Z+7	; 0x07
     72c:	bc 01       	movw	r22, r24
     72e:	cd 01       	movw	r24, r26
     730:	6c 19       	sub	r22, r12
     732:	7d 09       	sbc	r23, r13
     734:	8e 09       	sbc	r24, r14
     736:	9f 09       	sbc	r25, r15
}
     738:	1f 91       	pop	r17
     73a:	0f 91       	pop	r16
     73c:	ff 90       	pop	r15
     73e:	ef 90       	pop	r14
     740:	df 90       	pop	r13
     742:	cf 90       	pop	r12
     744:	bf 90       	pop	r11
     746:	af 90       	pop	r10
     748:	9f 90       	pop	r9
     74a:	8f 90       	pop	r8
     74c:	08 95       	ret

0000074e <_ZN6BME28016convert_humidityEv>:
 * Return:		uint32_t - the human-readable humidity reading accurate to 3
 *							decimal places in %rH where 42313 represents
 *							42313 / 1024 = 41.321 %rH
 ****************************************************************************/
uint32_t BME280::convert_humidity (void)
{
     74e:	4f 92       	push	r4
     750:	5f 92       	push	r5
     752:	6f 92       	push	r6
     754:	7f 92       	push	r7
     756:	8f 92       	push	r8
     758:	9f 92       	push	r9
     75a:	af 92       	push	r10
     75c:	bf 92       	push	r11
     75e:	cf 92       	push	r12
     760:	df 92       	push	r13
     762:	ef 92       	push	r14
     764:	ff 92       	push	r15
     766:	fc 01       	movw	r30, r24
	int32_t var1;
	
	/* Utilize t_fine calculation */
	var1 = (cal.t_fine - ((int32_t)76800));
     768:	dc 01       	movw	r26, r24
     76a:	af 5b       	subi	r26, 0xBF	; 191
     76c:	bf 4f       	sbci	r27, 0xFF	; 255
     76e:	8d 90       	ld	r8, X+
     770:	9d 90       	ld	r9, X+
     772:	ad 90       	ld	r10, X+
     774:	bc 90       	ld	r11, X
     776:	2c e2       	ldi	r18, 0x2C	; 44
     778:	92 1a       	sub	r9, r18
     77a:	21 e0       	ldi	r18, 0x01	; 1
     77c:	a2 0a       	sbc	r10, r18
     77e:	b1 08       	sbc	r11, r1
	
	/* Calculate var1 - part 1	 */
	var1 =	(((((raw_hum << 14) - (((int32_t)cal.dig_H4) << 20) -
     780:	c0 88       	ldd	r12, Z+16	; 0x10
     782:	d1 88       	ldd	r13, Z+17	; 0x11
     784:	e2 88       	ldd	r14, Z+18	; 0x12
     786:	f3 88       	ldd	r15, Z+19	; 0x13
     788:	0b 2e       	mov	r0, r27
     78a:	be e0       	ldi	r27, 0x0E	; 14
     78c:	cc 0c       	add	r12, r12
     78e:	dd 1c       	adc	r13, r13
     790:	ee 1c       	adc	r14, r14
     792:	ff 1c       	adc	r15, r15
     794:	ba 95       	dec	r27
     796:	d1 f7       	brne	.-12     	; 0x78c <_ZN6BME28016convert_humidityEv+0x3e>
     798:	b0 2d       	mov	r27, r0
     79a:	84 ad       	ldd	r24, Z+60	; 0x3c
     79c:	95 ad       	ldd	r25, Z+61	; 0x3d
     79e:	09 2e       	mov	r0, r25
     7a0:	00 0c       	add	r0, r0
     7a2:	aa 0b       	sbc	r26, r26
     7a4:	bb 0b       	sbc	r27, r27
     7a6:	07 2e       	mov	r0, r23
     7a8:	74 e1       	ldi	r23, 0x14	; 20
     7aa:	88 0f       	add	r24, r24
     7ac:	99 1f       	adc	r25, r25
     7ae:	aa 1f       	adc	r26, r26
     7b0:	bb 1f       	adc	r27, r27
     7b2:	7a 95       	dec	r23
     7b4:	d1 f7       	brne	.-12     	; 0x7aa <_ZN6BME28016convert_humidityEv+0x5c>
     7b6:	70 2d       	mov	r23, r0
     7b8:	c8 1a       	sub	r12, r24
     7ba:	d9 0a       	sbc	r13, r25
     7bc:	ea 0a       	sbc	r14, r26
     7be:	fb 0a       	sbc	r15, r27
				(((int32_t)cal.dig_H5) * var1)) + ((int32_t)16384)) >> 15) *
     7c0:	a6 ad       	ldd	r26, Z+62	; 0x3e
     7c2:	b7 ad       	ldd	r27, Z+63	; 0x3f
     7c4:	a5 01       	movw	r20, r10
     7c6:	94 01       	movw	r18, r8
     7c8:	0e 94 b5 0c 	call	0x196a	; 0x196a <__mulshisi3>
	
	/* Utilize t_fine calculation */
	var1 = (cal.t_fine - ((int32_t)76800));
	
	/* Calculate var1 - part 1	 */
	var1 =	(((((raw_hum << 14) - (((int32_t)cal.dig_H4) << 20) -
     7cc:	c6 1a       	sub	r12, r22
     7ce:	d7 0a       	sbc	r13, r23
     7d0:	e8 0a       	sbc	r14, r24
     7d2:	f9 0a       	sbc	r15, r25
				(((int32_t)cal.dig_H5) * var1)) + ((int32_t)16384)) >> 15) *
     7d4:	30 e4       	ldi	r19, 0x40	; 64
     7d6:	d3 0e       	add	r13, r19
     7d8:	e1 1c       	adc	r14, r1
     7da:	f1 1c       	adc	r15, r1
     7dc:	0b 2e       	mov	r0, r27
     7de:	bf e0       	ldi	r27, 0x0F	; 15
     7e0:	f5 94       	asr	r15
     7e2:	e7 94       	ror	r14
     7e4:	d7 94       	ror	r13
     7e6:	c7 94       	ror	r12
     7e8:	ba 95       	dec	r27
     7ea:	d1 f7       	brne	.-12     	; 0x7e0 <_ZN6BME28016convert_humidityEv+0x92>
     7ec:	b0 2d       	mov	r27, r0
			 (((((((var1 * ((int32_t)cal.dig_H6)) >> 10) *
     7ee:	df 01       	movw	r26, r30
     7f0:	a0 5c       	subi	r26, 0xC0	; 192
     7f2:	bf 4f       	sbci	r27, 0xFF	; 255
     7f4:	ac 91       	ld	r26, X
     7f6:	0a 2e       	mov	r0, r26
     7f8:	00 0c       	add	r0, r0
     7fa:	bb 0b       	sbc	r27, r27
     7fc:	a5 01       	movw	r20, r10
     7fe:	94 01       	movw	r18, r8
     800:	0e 94 b5 0c 	call	0x196a	; 0x196a <__mulshisi3>
     804:	2b 01       	movw	r4, r22
     806:	3c 01       	movw	r6, r24
     808:	03 2e       	mov	r0, r19
     80a:	3a e0       	ldi	r19, 0x0A	; 10
     80c:	75 94       	asr	r7
     80e:	67 94       	ror	r6
     810:	57 94       	ror	r5
     812:	47 94       	ror	r4
     814:	3a 95       	dec	r19
     816:	d1 f7       	brne	.-12     	; 0x80c <_ZN6BME28016convert_humidityEv+0xbe>
     818:	30 2d       	mov	r19, r0
				  (((var1 * ((int32_t)cal.dig_H3)) >> 11)
     81a:	a3 ad       	ldd	r26, Z+59	; 0x3b
     81c:	b0 e0       	ldi	r27, 0x00	; 0
     81e:	0e 94 aa 0c 	call	0x1954	; 0x1954 <__muluhisi3>
     822:	dc 01       	movw	r26, r24
     824:	cb 01       	movw	r24, r22
     826:	07 2e       	mov	r0, r23
     828:	7b e0       	ldi	r23, 0x0B	; 11
     82a:	b5 95       	asr	r27
     82c:	a7 95       	ror	r26
     82e:	97 95       	ror	r25
     830:	87 95       	ror	r24
     832:	7a 95       	dec	r23
     834:	d1 f7       	brne	.-12     	; 0x82a <_ZN6BME28016convert_humidityEv+0xdc>
     836:	70 2d       	mov	r23, r0
				   + ((int32_t)32768))) >> 10) +	
     838:	bc 01       	movw	r22, r24
     83a:	cd 01       	movw	r24, r26
     83c:	70 58       	subi	r23, 0x80	; 128
     83e:	8f 4f       	sbci	r24, 0xFF	; 255
     840:	9f 4f       	sbci	r25, 0xFF	; 255
	var1 = (cal.t_fine - ((int32_t)76800));
	
	/* Calculate var1 - part 1	 */
	var1 =	(((((raw_hum << 14) - (((int32_t)cal.dig_H4) << 20) -
				(((int32_t)cal.dig_H5) * var1)) + ((int32_t)16384)) >> 15) *
			 (((((((var1 * ((int32_t)cal.dig_H6)) >> 10) *
     842:	a3 01       	movw	r20, r6
     844:	92 01       	movw	r18, r4
     846:	0e 94 45 0c 	call	0x188a	; 0x188a <__mulsi3>
				  (((var1 * ((int32_t)cal.dig_H3)) >> 11)
				   + ((int32_t)32768))) >> 10) +	
     84a:	dc 01       	movw	r26, r24
     84c:	cb 01       	movw	r24, r22
     84e:	07 2e       	mov	r0, r23
     850:	7a e0       	ldi	r23, 0x0A	; 10
     852:	b5 95       	asr	r27
     854:	a7 95       	ror	r26
     856:	97 95       	ror	r25
     858:	87 95       	ror	r24
     85a:	7a 95       	dec	r23
     85c:	d1 f7       	brne	.-12     	; 0x852 <_ZN6BME28016convert_humidityEv+0x104>
     85e:	70 2d       	mov	r23, r0
     860:	9c 01       	movw	r18, r24
     862:	ad 01       	movw	r20, r26
     864:	40 5e       	subi	r20, 0xE0	; 224
     866:	5f 4f       	sbci	r21, 0xFF	; 255
				((int32_t)2097152)) * ((int32_t)cal.dig_H2) + 8192) >> 14));
     868:	a1 ad       	ldd	r26, Z+57	; 0x39
     86a:	b2 ad       	ldd	r27, Z+58	; 0x3a
     86c:	0e 94 b5 0c 	call	0x196a	; 0x196a <__mulshisi3>
     870:	dc 01       	movw	r26, r24
     872:	cb 01       	movw	r24, r22
     874:	90 5e       	subi	r25, 0xE0	; 224
     876:	af 4f       	sbci	r26, 0xFF	; 255
     878:	bf 4f       	sbci	r27, 0xFF	; 255
     87a:	bc 01       	movw	r22, r24
     87c:	cd 01       	movw	r24, r26
     87e:	05 2e       	mov	r0, r21
     880:	5e e0       	ldi	r21, 0x0E	; 14
     882:	95 95       	asr	r25
     884:	87 95       	ror	r24
     886:	77 95       	ror	r23
     888:	67 95       	ror	r22
     88a:	5a 95       	dec	r21
     88c:	d1 f7       	brne	.-12     	; 0x882 <_ZN6BME28016convert_humidityEv+0x134>
     88e:	50 2d       	mov	r21, r0
     890:	a7 01       	movw	r20, r14
     892:	96 01       	movw	r18, r12
     894:	0e 94 45 0c 	call	0x188a	; 0x188a <__mulsi3>
     898:	6b 01       	movw	r12, r22
     89a:	7c 01       	movw	r14, r24
	
	/* Calculate var1 - part 2 */
	var1 = (var1 - (((((var1 >> 15) * (var1 >> 15)) >> 7)
     89c:	05 2e       	mov	r0, r21
     89e:	5f e0       	ldi	r21, 0x0F	; 15
     8a0:	95 95       	asr	r25
     8a2:	87 95       	ror	r24
     8a4:	77 95       	ror	r23
     8a6:	67 95       	ror	r22
     8a8:	5a 95       	dec	r21
     8aa:	d1 f7       	brne	.-12     	; 0x8a0 <_ZN6BME28016convert_humidityEv+0x152>
     8ac:	50 2d       	mov	r21, r0
     8ae:	9b 01       	movw	r18, r22
     8b0:	ac 01       	movw	r20, r24
     8b2:	0e 94 45 0c 	call	0x188a	; 0x188a <__mulsi3>
     8b6:	9b 01       	movw	r18, r22
     8b8:	ac 01       	movw	r20, r24
     8ba:	68 94       	set
     8bc:	16 f8       	bld	r1, 6
     8be:	55 95       	asr	r21
     8c0:	47 95       	ror	r20
     8c2:	37 95       	ror	r19
     8c4:	27 95       	ror	r18
     8c6:	16 94       	lsr	r1
     8c8:	d1 f7       	brne	.-12     	; 0x8be <_ZN6BME28016convert_humidityEv+0x170>
			* ((int32_t)cal.dig_H1)) >> 4));
     8ca:	a0 ad       	ldd	r26, Z+56	; 0x38
     8cc:	b0 e0       	ldi	r27, 0x00	; 0
     8ce:	0e 94 aa 0c 	call	0x1954	; 0x1954 <__muluhisi3>
     8d2:	dc 01       	movw	r26, r24
     8d4:	cb 01       	movw	r24, r22
     8d6:	68 94       	set
     8d8:	13 f8       	bld	r1, 3
     8da:	b5 95       	asr	r27
     8dc:	a7 95       	ror	r26
     8de:	97 95       	ror	r25
     8e0:	87 95       	ror	r24
     8e2:	16 94       	lsr	r1
     8e4:	d1 f7       	brne	.-12     	; 0x8da <_ZN6BME28016convert_humidityEv+0x18c>
	
	
	/* Check boundaries */	
	var1 = (var1 < 0 ? 0 : var1);
     8e6:	a7 01       	movw	r20, r14
     8e8:	96 01       	movw	r18, r12
     8ea:	28 1b       	sub	r18, r24
     8ec:	39 0b       	sbc	r19, r25
     8ee:	4a 0b       	sbc	r20, r26
     8f0:	5b 0b       	sbc	r21, r27
     8f2:	da 01       	movw	r26, r20
     8f4:	c9 01       	movw	r24, r18
     8f6:	1a f4       	brpl	.+6      	; 0x8fe <_ZN6BME28016convert_humidityEv+0x1b0>
     8f8:	80 e0       	ldi	r24, 0x00	; 0
     8fa:	90 e0       	ldi	r25, 0x00	; 0
     8fc:	dc 01       	movw	r26, r24
	var1 = (var1 > 419430400 ? 419430400 : var1);
     8fe:	81 30       	cpi	r24, 0x01	; 1
     900:	91 05       	cpc	r25, r1
     902:	a1 05       	cpc	r26, r1
     904:	39 e1       	ldi	r19, 0x19	; 25
     906:	b3 07       	cpc	r27, r19
     908:	24 f0       	brlt	.+8      	; 0x912 <__stack+0x13>
     90a:	80 e0       	ldi	r24, 0x00	; 0
     90c:	90 e0       	ldi	r25, 0x00	; 0
     90e:	a0 e0       	ldi	r26, 0x00	; 0
     910:	b9 e1       	ldi	r27, 0x19	; 25
	
	return (uint32_t)((var1 >> 12));
     912:	bc 01       	movw	r22, r24
     914:	cd 01       	movw	r24, r26
     916:	05 2e       	mov	r0, r21
     918:	5c e0       	ldi	r21, 0x0C	; 12
     91a:	95 95       	asr	r25
     91c:	87 95       	ror	r24
     91e:	77 95       	ror	r23
     920:	67 95       	ror	r22
     922:	5a 95       	dec	r21
     924:	d1 f7       	brne	.-12     	; 0x91a <__stack+0x1b>
     926:	50 2d       	mov	r21, r0
}
     928:	ff 90       	pop	r15
     92a:	ef 90       	pop	r14
     92c:	df 90       	pop	r13
     92e:	cf 90       	pop	r12
     930:	bf 90       	pop	r11
     932:	af 90       	pop	r10
     934:	9f 90       	pop	r9
     936:	8f 90       	pop	r8
     938:	7f 90       	pop	r7
     93a:	6f 90       	pop	r6
     93c:	5f 90       	pop	r5
     93e:	4f 90       	pop	r4
     940:	08 95       	ret

00000942 <_ZN6BME2809read_dataEv>:
 * 
 * Return:		bool - the status of the operation (false = success,
 *													true = failure)
 ****************************************************************************/
bool BME280::read_data (void)
{
     942:	df 92       	push	r13
     944:	ef 92       	push	r14
     946:	ff 92       	push	r15
     948:	0f 93       	push	r16
     94a:	1f 93       	push	r17
     94c:	cf 93       	push	r28
     94e:	df 93       	push	r29
     950:	cd b7       	in	r28, 0x3d	; 61
     952:	de b7       	in	r29, 0x3e	; 62
     954:	28 97       	sbiw	r28, 0x08	; 8
     956:	0f b6       	in	r0, 0x3f	; 63
     958:	f8 94       	cli
     95a:	de bf       	out	0x3e, r29	; 62
     95c:	0f be       	out	0x3f, r0	; 63
     95e:	cd bf       	out	0x3d, r28	; 61
     960:	7c 01       	movw	r14, r24
	uint8_t data[NUM_DATA_REG];		// array to hold all of raw data from read
	
	// read in the data from the registers
	if (p_i2c->read(BME280_ADDR, BME280_P_RAW_MSB, data, NUM_DATA_REG))
     962:	08 e0       	ldi	r16, 0x08	; 8
     964:	9e 01       	movw	r18, r28
     966:	2f 5f       	subi	r18, 0xFF	; 255
     968:	3f 4f       	sbci	r19, 0xFF	; 255
     96a:	47 ef       	ldi	r20, 0xF7	; 247
     96c:	6e ee       	ldi	r22, 0xEE	; 238
     96e:	fc 01       	movw	r30, r24
     970:	80 81       	ld	r24, Z
     972:	91 81       	ldd	r25, Z+1	; 0x01
     974:	0e 94 08 09 	call	0x1210	; 0x1210 <_ZN3i2c4readEhhPhh>
     978:	d8 2e       	mov	r13, r24
     97a:	88 23       	and	r24, r24
     97c:	89 f0       	breq	.+34     	; 0x9a0 <_ZN6BME2809read_dataEv+0x5e>
	{
		// There was an error in the read operation, propagate this message
		DBG(this->p_serial, "BME280::read_data FAILED to read data registers\r\n");
     97e:	82 e3       	ldi	r24, 0x32	; 50
     980:	e2 e3       	ldi	r30, 0x32	; 50
     982:	f1 e0       	ldi	r31, 0x01	; 1
     984:	ab ea       	ldi	r26, 0xAB	; 171
     986:	b4 e0       	ldi	r27, 0x04	; 4
     988:	01 90       	ld	r0, Z+
     98a:	0d 92       	st	X+, r0
     98c:	8a 95       	dec	r24
     98e:	e1 f7       	brne	.-8      	; 0x988 <_ZN6BME2809read_dataEv+0x46>
     990:	6b ea       	ldi	r22, 0xAB	; 171
     992:	74 e0       	ldi	r23, 0x04	; 4
     994:	f7 01       	movw	r30, r14
     996:	82 81       	ldd	r24, Z+2	; 0x02
     998:	93 81       	ldd	r25, Z+3	; 0x03
     99a:	0e 94 21 0c 	call	0x1842	; 0x1842 <_ZN6serial4sendEPc>
		return true;
     99e:	81 c0       	rjmp	.+258    	; 0xaa2 <_ZN6BME2809read_dataEv+0x160>
	}
	
	// store data in class variables
	raw_pres = (int32_t)(
						((uint32_t)data[NDX_P_MSB]  << P_T_MSB_SHIFT)
						| ((uint32_t)data[NDX_P_LSB]  << P_T_LSB_SHIFT)
     9a0:	8a 81       	ldd	r24, Y+2	; 0x02
     9a2:	90 e0       	ldi	r25, 0x00	; 0
     9a4:	a0 e0       	ldi	r26, 0x00	; 0
     9a6:	b0 e0       	ldi	r27, 0x00	; 0
     9a8:	88 0f       	add	r24, r24
     9aa:	99 1f       	adc	r25, r25
     9ac:	aa 1f       	adc	r26, r26
     9ae:	bb 1f       	adc	r27, r27
     9b0:	88 0f       	add	r24, r24
     9b2:	99 1f       	adc	r25, r25
     9b4:	aa 1f       	adc	r26, r26
     9b6:	bb 1f       	adc	r27, r27
     9b8:	88 0f       	add	r24, r24
     9ba:	99 1f       	adc	r25, r25
     9bc:	aa 1f       	adc	r26, r26
     9be:	bb 1f       	adc	r27, r27
     9c0:	88 0f       	add	r24, r24
     9c2:	99 1f       	adc	r25, r25
     9c4:	aa 1f       	adc	r26, r26
     9c6:	bb 1f       	adc	r27, r27
		return true;
	}
	
	// store data in class variables
	raw_pres = (int32_t)(
						((uint32_t)data[NDX_P_MSB]  << P_T_MSB_SHIFT)
     9c8:	49 81       	ldd	r20, Y+1	; 0x01
     9ca:	50 e0       	ldi	r21, 0x00	; 0
     9cc:	60 e0       	ldi	r22, 0x00	; 0
     9ce:	70 e0       	ldi	r23, 0x00	; 0
     9d0:	03 2e       	mov	r0, r19
     9d2:	3c e0       	ldi	r19, 0x0C	; 12
     9d4:	44 0f       	add	r20, r20
     9d6:	55 1f       	adc	r21, r21
     9d8:	66 1f       	adc	r22, r22
     9da:	77 1f       	adc	r23, r23
     9dc:	3a 95       	dec	r19
     9de:	d1 f7       	brne	.-12     	; 0x9d4 <_ZN6BME2809read_dataEv+0x92>
     9e0:	30 2d       	mov	r19, r0
						| ((uint32_t)data[NDX_P_LSB]  << P_T_LSB_SHIFT)
     9e2:	84 2b       	or	r24, r20
     9e4:	95 2b       	or	r25, r21
     9e6:	a6 2b       	or	r26, r22
     9e8:	b7 2b       	or	r27, r23
						| (((uint32_t)data[NDX_P_XLSB] >> P_T_XLSB_SHIFT) & 0x0F)
     9ea:	2b 81       	ldd	r18, Y+3	; 0x03
     9ec:	22 95       	swap	r18
     9ee:	2f 70       	andi	r18, 0x0F	; 15
     9f0:	82 2b       	or	r24, r18
						);
     9f2:	f7 01       	movw	r30, r14
     9f4:	80 87       	std	Z+8, r24	; 0x08
     9f6:	91 87       	std	Z+9, r25	; 0x09
     9f8:	a2 87       	std	Z+10, r26	; 0x0a
     9fa:	b3 87       	std	Z+11, r27	; 0x0b
	
	raw_temp = (int32_t)(
						((uint32_t)data[NDX_T_MSB]  << P_T_MSB_SHIFT)
						| ((uint32_t)data[NDX_T_LSB]  << P_T_LSB_SHIFT)
     9fc:	4d 81       	ldd	r20, Y+5	; 0x05
     9fe:	50 e0       	ldi	r21, 0x00	; 0
     a00:	60 e0       	ldi	r22, 0x00	; 0
     a02:	70 e0       	ldi	r23, 0x00	; 0
     a04:	44 0f       	add	r20, r20
     a06:	55 1f       	adc	r21, r21
     a08:	66 1f       	adc	r22, r22
     a0a:	77 1f       	adc	r23, r23
     a0c:	44 0f       	add	r20, r20
     a0e:	55 1f       	adc	r21, r21
     a10:	66 1f       	adc	r22, r22
     a12:	77 1f       	adc	r23, r23
     a14:	44 0f       	add	r20, r20
     a16:	55 1f       	adc	r21, r21
     a18:	66 1f       	adc	r22, r22
     a1a:	77 1f       	adc	r23, r23
     a1c:	44 0f       	add	r20, r20
     a1e:	55 1f       	adc	r21, r21
     a20:	66 1f       	adc	r22, r22
     a22:	77 1f       	adc	r23, r23
						| ((uint32_t)data[NDX_P_LSB]  << P_T_LSB_SHIFT)
						| (((uint32_t)data[NDX_P_XLSB] >> P_T_XLSB_SHIFT) & 0x0F)
						);
	
	raw_temp = (int32_t)(
						((uint32_t)data[NDX_T_MSB]  << P_T_MSB_SHIFT)
     a24:	0c 81       	ldd	r16, Y+4	; 0x04
     a26:	10 e0       	ldi	r17, 0x00	; 0
     a28:	20 e0       	ldi	r18, 0x00	; 0
     a2a:	30 e0       	ldi	r19, 0x00	; 0
     a2c:	0f 2e       	mov	r0, r31
     a2e:	fc e0       	ldi	r31, 0x0C	; 12
     a30:	00 0f       	add	r16, r16
     a32:	11 1f       	adc	r17, r17
     a34:	22 1f       	adc	r18, r18
     a36:	33 1f       	adc	r19, r19
     a38:	fa 95       	dec	r31
     a3a:	d1 f7       	brne	.-12     	; 0xa30 <_ZN6BME2809read_dataEv+0xee>
     a3c:	f0 2d       	mov	r31, r0
						| ((uint32_t)data[NDX_T_LSB]  << P_T_LSB_SHIFT)
     a3e:	40 2b       	or	r20, r16
     a40:	51 2b       	or	r21, r17
     a42:	62 2b       	or	r22, r18
     a44:	73 2b       	or	r23, r19
						| (((uint32_t)data[NDX_T_XLSB] >> P_T_XLSB_SHIFT) & 0x0F)
     a46:	8e 81       	ldd	r24, Y+6	; 0x06
     a48:	82 95       	swap	r24
     a4a:	8f 70       	andi	r24, 0x0F	; 15
     a4c:	48 2b       	or	r20, r24
						);
     a4e:	44 87       	std	Z+12, r20	; 0x0c
     a50:	55 87       	std	Z+13, r21	; 0x0d
     a52:	66 87       	std	Z+14, r22	; 0x0e
     a54:	77 87       	std	Z+15, r23	; 0x0f
			  
	raw_hum  = (int32_t)(
						((uint32_t)data[NDX_H_MSB] << BYTE_SHIFT)
     a56:	8f 81       	ldd	r24, Y+7	; 0x07
     a58:	90 e0       	ldi	r25, 0x00	; 0
     a5a:	a0 e0       	ldi	r26, 0x00	; 0
     a5c:	b0 e0       	ldi	r27, 0x00	; 0
     a5e:	ba 2f       	mov	r27, r26
     a60:	a9 2f       	mov	r26, r25
     a62:	98 2f       	mov	r25, r24
     a64:	88 27       	eor	r24, r24
						| ((uint32_t)data[NDX_H_LSB])
     a66:	28 85       	ldd	r18, Y+8	; 0x08
     a68:	82 2b       	or	r24, r18
						);
     a6a:	80 8b       	std	Z+16, r24	; 0x10
     a6c:	91 8b       	std	Z+17, r25	; 0x11
     a6e:	a2 8b       	std	Z+18, r26	; 0x12
     a70:	b3 8b       	std	Z+19, r27	; 0x13
	
	// convert the raw values into human readable format
	pressure = convert_pressure();
     a72:	c7 01       	movw	r24, r14
     a74:	0e 94 72 00 	call	0xe4	; 0xe4 <_ZN6BME28016convert_pressureEv>
     a78:	f7 01       	movw	r30, r14
     a7a:	64 8b       	std	Z+20, r22	; 0x14
     a7c:	75 8b       	std	Z+21, r23	; 0x15
     a7e:	86 8b       	std	Z+22, r24	; 0x16
     a80:	97 8b       	std	Z+23, r25	; 0x17
	temperature = convert_temperature();
     a82:	c7 01       	movw	r24, r14
     a84:	0e 94 04 03 	call	0x608	; 0x608 <_ZN6BME28019convert_temperatureEv>
     a88:	f7 01       	movw	r30, r14
     a8a:	60 8f       	std	Z+24, r22	; 0x18
     a8c:	71 8f       	std	Z+25, r23	; 0x19
     a8e:	82 8f       	std	Z+26, r24	; 0x1a
     a90:	93 8f       	std	Z+27, r25	; 0x1b
	humidity = convert_humidity();
     a92:	c7 01       	movw	r24, r14
     a94:	0e 94 a7 03 	call	0x74e	; 0x74e <_ZN6BME28016convert_humidityEv>
     a98:	f7 01       	movw	r30, r14
     a9a:	64 8f       	std	Z+28, r22	; 0x1c
     a9c:	75 8f       	std	Z+29, r23	; 0x1d
     a9e:	86 8f       	std	Z+30, r24	; 0x1e
     aa0:	97 8f       	std	Z+31, r25	; 0x1f
	
	return false;
}
     aa2:	8d 2d       	mov	r24, r13
     aa4:	28 96       	adiw	r28, 0x08	; 8
     aa6:	0f b6       	in	r0, 0x3f	; 63
     aa8:	f8 94       	cli
     aaa:	de bf       	out	0x3e, r29	; 62
     aac:	0f be       	out	0x3f, r0	; 63
     aae:	cd bf       	out	0x3d, r28	; 61
     ab0:	df 91       	pop	r29
     ab2:	cf 91       	pop	r28
     ab4:	1f 91       	pop	r17
     ab6:	0f 91       	pop	r16
     ab8:	ff 90       	pop	r15
     aba:	ef 90       	pop	r14
     abc:	df 90       	pop	r13
     abe:	08 95       	ret

00000ac0 <_ZN6BME2808read_calEv>:
 * 
 * Return:		bool - the status of the operation (false = success,
 *													true = failure)
 ****************************************************************************/
bool BME280::read_cal (void)
{
     ac0:	ef 92       	push	r14
     ac2:	ff 92       	push	r15
     ac4:	0f 93       	push	r16
     ac6:	cf 93       	push	r28
     ac8:	df 93       	push	r29
     aca:	cd b7       	in	r28, 0x3d	; 61
     acc:	de b7       	in	r29, 0x3e	; 62
     ace:	a1 97       	sbiw	r28, 0x21	; 33
     ad0:	0f b6       	in	r0, 0x3f	; 63
     ad2:	f8 94       	cli
     ad4:	de bf       	out	0x3e, r29	; 62
     ad6:	0f be       	out	0x3f, r0	; 63
     ad8:	cd bf       	out	0x3d, r28	; 61
     ada:	7c 01       	movw	r14, r24
	uint8_t data1[BME280_CAL_RNG_1];	// hold calibration data from range 1
	uint8_t data2[BME280_CAL_RNG_2];	// hold calibration data from range 2
	
	if (p_i2c->read(BME280_ADDR, BME280_CAL_START_1, data1, BME280_CAL_RNG_1)
     adc:	0a e1       	ldi	r16, 0x1A	; 26
     ade:	9e 01       	movw	r18, r28
     ae0:	2f 5f       	subi	r18, 0xFF	; 255
     ae2:	3f 4f       	sbci	r19, 0xFF	; 255
     ae4:	48 e8       	ldi	r20, 0x88	; 136
     ae6:	6e ee       	ldi	r22, 0xEE	; 238
     ae8:	fc 01       	movw	r30, r24
     aea:	80 81       	ld	r24, Z
     aec:	91 81       	ldd	r25, Z+1	; 0x01
     aee:	0e 94 08 09 	call	0x1210	; 0x1210 <_ZN3i2c4readEhhPhh>
	 || p_i2c->read(BME280_ADDR, BME280_CAL_START_2, data2, BME280_CAL_RNG_2))
     af2:	81 11       	cpse	r24, r1
     af4:	0d c0       	rjmp	.+26     	; 0xb10 <_ZN6BME2808read_calEv+0x50>
     af6:	07 e0       	ldi	r16, 0x07	; 7
     af8:	9e 01       	movw	r18, r28
     afa:	25 5e       	subi	r18, 0xE5	; 229
     afc:	3f 4f       	sbci	r19, 0xFF	; 255
     afe:	41 ee       	ldi	r20, 0xE1	; 225
     b00:	6e ee       	ldi	r22, 0xEE	; 238
     b02:	f7 01       	movw	r30, r14
     b04:	80 81       	ld	r24, Z
     b06:	91 81       	ldd	r25, Z+1	; 0x01
     b08:	0e 94 08 09 	call	0x1210	; 0x1210 <_ZN3i2c4readEhhPhh>
bool BME280::read_cal (void)
{
	uint8_t data1[BME280_CAL_RNG_1];	// hold calibration data from range 1
	uint8_t data2[BME280_CAL_RNG_2];	// hold calibration data from range 2
	
	if (p_i2c->read(BME280_ADDR, BME280_CAL_START_1, data1, BME280_CAL_RNG_1)
     b0c:	88 23       	and	r24, r24
     b0e:	91 f0       	breq	.+36     	; 0xb34 <_ZN6BME2808read_calEv+0x74>
	 || p_i2c->read(BME280_ADDR, BME280_CAL_START_2, data2, BME280_CAL_RNG_2))
	{
		// There was an error in the read operation, propagate this message
		DBG(this->p_serial, "BME280::read_cal FAILED to read cal reigsters\r\n");
     b10:	80 e3       	ldi	r24, 0x30	; 48
     b12:	e4 e6       	ldi	r30, 0x64	; 100
     b14:	f1 e0       	ldi	r31, 0x01	; 1
     b16:	ab ea       	ldi	r26, 0xAB	; 171
     b18:	b4 e0       	ldi	r27, 0x04	; 4
     b1a:	01 90       	ld	r0, Z+
     b1c:	0d 92       	st	X+, r0
     b1e:	8a 95       	dec	r24
     b20:	e1 f7       	brne	.-8      	; 0xb1a <_ZN6BME2808read_calEv+0x5a>
     b22:	6b ea       	ldi	r22, 0xAB	; 171
     b24:	74 e0       	ldi	r23, 0x04	; 4
     b26:	f7 01       	movw	r30, r14
     b28:	82 81       	ldd	r24, Z+2	; 0x02
     b2a:	93 81       	ldd	r25, Z+3	; 0x03
     b2c:	0e 94 21 0c 	call	0x1842	; 0x1842 <_ZN6serial4sendEPc>
		return true;
     b30:	81 e0       	ldi	r24, 0x01	; 1
     b32:	88 c0       	rjmp	.+272    	; 0xc44 <_ZN6BME2808read_calEv+0x184>
	}
	
	cal.dig_T1 = (uint16_t)(((uint16_t)data1[CAL_DIG_T1_MSB] << BYTE_SHIFT)
     b34:	2a 81       	ldd	r18, Y+2	; 0x02
     b36:	30 e0       	ldi	r19, 0x00	; 0
     b38:	32 2f       	mov	r19, r18
     b3a:	22 27       	eor	r18, r18
							| data1[CAL_DIG_T1_LSB]);
     b3c:	99 81       	ldd	r25, Y+1	; 0x01
     b3e:	29 2b       	or	r18, r25
     b40:	f7 01       	movw	r30, r14
     b42:	31 a3       	std	Z+33, r19	; 0x21
     b44:	20 a3       	std	Z+32, r18	; 0x20
	cal.dig_T2 = (int16_t)(((uint16_t)data1[CAL_DIG_T2_MSB] << BYTE_SHIFT)
     b46:	2c 81       	ldd	r18, Y+4	; 0x04
     b48:	30 e0       	ldi	r19, 0x00	; 0
     b4a:	32 2f       	mov	r19, r18
     b4c:	22 27       	eor	r18, r18
							| data1[CAL_DIG_T2_LSB]);
     b4e:	9b 81       	ldd	r25, Y+3	; 0x03
     b50:	29 2b       	or	r18, r25
     b52:	33 a3       	std	Z+35, r19	; 0x23
     b54:	22 a3       	std	Z+34, r18	; 0x22
	cal.dig_T3 = (int16_t)(((uint16_t)data1[CAL_DIG_T3_MSB] << BYTE_SHIFT)
     b56:	2e 81       	ldd	r18, Y+6	; 0x06
     b58:	30 e0       	ldi	r19, 0x00	; 0
     b5a:	32 2f       	mov	r19, r18
     b5c:	22 27       	eor	r18, r18
							| data1[CAL_DIG_T3_LSB]);
     b5e:	9d 81       	ldd	r25, Y+5	; 0x05
     b60:	29 2b       	or	r18, r25
     b62:	35 a3       	std	Z+37, r19	; 0x25
     b64:	24 a3       	std	Z+36, r18	; 0x24
	
	cal.dig_P1 = (uint16_t)(((uint16_t)data1[CAL_DIG_P1_MSB] << BYTE_SHIFT)
     b66:	28 85       	ldd	r18, Y+8	; 0x08
     b68:	30 e0       	ldi	r19, 0x00	; 0
     b6a:	32 2f       	mov	r19, r18
     b6c:	22 27       	eor	r18, r18
							| data1[CAL_DIG_P1_LSB]);
     b6e:	9f 81       	ldd	r25, Y+7	; 0x07
     b70:	29 2b       	or	r18, r25
     b72:	37 a3       	std	Z+39, r19	; 0x27
     b74:	26 a3       	std	Z+38, r18	; 0x26
	cal.dig_P2 = (int16_t)(((uint16_t)data1[CAL_DIG_P2_MSB] << BYTE_SHIFT)
     b76:	2a 85       	ldd	r18, Y+10	; 0x0a
     b78:	30 e0       	ldi	r19, 0x00	; 0
     b7a:	32 2f       	mov	r19, r18
     b7c:	22 27       	eor	r18, r18
							| data1[CAL_DIG_P2_LSB]);
     b7e:	99 85       	ldd	r25, Y+9	; 0x09
     b80:	29 2b       	or	r18, r25
     b82:	31 a7       	std	Z+41, r19	; 0x29
     b84:	20 a7       	std	Z+40, r18	; 0x28
	cal.dig_P3 = (int16_t)(((uint16_t)data1[CAL_DIG_P3_MSB] << BYTE_SHIFT)
     b86:	2c 85       	ldd	r18, Y+12	; 0x0c
     b88:	30 e0       	ldi	r19, 0x00	; 0
     b8a:	32 2f       	mov	r19, r18
     b8c:	22 27       	eor	r18, r18
							| data1[CAL_DIG_P3_LSB]);
     b8e:	9b 85       	ldd	r25, Y+11	; 0x0b
     b90:	29 2b       	or	r18, r25
     b92:	33 a7       	std	Z+43, r19	; 0x2b
     b94:	22 a7       	std	Z+42, r18	; 0x2a
	cal.dig_P4 = (int16_t)(((uint16_t)data1[CAL_DIG_P4_MSB] << BYTE_SHIFT)
     b96:	2e 85       	ldd	r18, Y+14	; 0x0e
     b98:	30 e0       	ldi	r19, 0x00	; 0
     b9a:	32 2f       	mov	r19, r18
     b9c:	22 27       	eor	r18, r18
							| data1[CAL_DIG_P4_LSB]);
     b9e:	9d 85       	ldd	r25, Y+13	; 0x0d
     ba0:	29 2b       	or	r18, r25
     ba2:	35 a7       	std	Z+45, r19	; 0x2d
     ba4:	24 a7       	std	Z+44, r18	; 0x2c
	cal.dig_P5 = (int16_t)(((uint16_t)data1[CAL_DIG_P5_MSB] << BYTE_SHIFT)
     ba6:	28 89       	ldd	r18, Y+16	; 0x10
     ba8:	30 e0       	ldi	r19, 0x00	; 0
     baa:	32 2f       	mov	r19, r18
     bac:	22 27       	eor	r18, r18
							| data1[CAL_DIG_P5_LSB]);
     bae:	9f 85       	ldd	r25, Y+15	; 0x0f
     bb0:	29 2b       	or	r18, r25
     bb2:	37 a7       	std	Z+47, r19	; 0x2f
     bb4:	26 a7       	std	Z+46, r18	; 0x2e
	cal.dig_P6 = (int16_t)(((uint16_t)data1[CAL_DIG_P6_MSB] << BYTE_SHIFT)
     bb6:	2a 89       	ldd	r18, Y+18	; 0x12
     bb8:	30 e0       	ldi	r19, 0x00	; 0
     bba:	32 2f       	mov	r19, r18
     bbc:	22 27       	eor	r18, r18
							| data1[CAL_DIG_P6_LSB]);
     bbe:	99 89       	ldd	r25, Y+17	; 0x11
     bc0:	29 2b       	or	r18, r25
     bc2:	31 ab       	std	Z+49, r19	; 0x31
     bc4:	20 ab       	std	Z+48, r18	; 0x30
	cal.dig_P7 = (int16_t)(((uint16_t)data1[CAL_DIG_P7_MSB] << BYTE_SHIFT)
     bc6:	2c 89       	ldd	r18, Y+20	; 0x14
     bc8:	30 e0       	ldi	r19, 0x00	; 0
     bca:	32 2f       	mov	r19, r18
     bcc:	22 27       	eor	r18, r18
							| data1[CAL_DIG_P7_LSB]);
     bce:	9b 89       	ldd	r25, Y+19	; 0x13
     bd0:	29 2b       	or	r18, r25
     bd2:	33 ab       	std	Z+51, r19	; 0x33
     bd4:	22 ab       	std	Z+50, r18	; 0x32
	cal.dig_P8 = (int16_t)(((uint16_t)data1[CAL_DIG_P8_MSB] << BYTE_SHIFT)
     bd6:	2e 89       	ldd	r18, Y+22	; 0x16
     bd8:	30 e0       	ldi	r19, 0x00	; 0
     bda:	32 2f       	mov	r19, r18
     bdc:	22 27       	eor	r18, r18
							| data1[CAL_DIG_P8_LSB]);
     bde:	9d 89       	ldd	r25, Y+21	; 0x15
     be0:	29 2b       	or	r18, r25
     be2:	35 ab       	std	Z+53, r19	; 0x35
     be4:	24 ab       	std	Z+52, r18	; 0x34
	cal.dig_P9 = (int16_t)(((uint16_t)data1[CAL_DIG_P9_MSB] << BYTE_SHIFT)
     be6:	28 8d       	ldd	r18, Y+24	; 0x18
     be8:	30 e0       	ldi	r19, 0x00	; 0
     bea:	32 2f       	mov	r19, r18
     bec:	22 27       	eor	r18, r18
							| data1[CAL_DIG_P9_LSB]);
     bee:	9f 89       	ldd	r25, Y+23	; 0x17
     bf0:	29 2b       	or	r18, r25
     bf2:	37 ab       	std	Z+55, r19	; 0x37
     bf4:	26 ab       	std	Z+54, r18	; 0x36
	
	cal.dig_H1 = (uint8_t)data1[CAL_DIG_H1_LSB];
     bf6:	9a 8d       	ldd	r25, Y+26	; 0x1a
     bf8:	90 af       	std	Z+56, r25	; 0x38
	cal.dig_H2 = (int16_t)(((uint16_t)data2[CAL_DIG_H2_MSB] << BYTE_SHIFT)
     bfa:	2c 8d       	ldd	r18, Y+28	; 0x1c
     bfc:	30 e0       	ldi	r19, 0x00	; 0
     bfe:	32 2f       	mov	r19, r18
     c00:	22 27       	eor	r18, r18
							| data2[CAL_DIG_H2_LSB]);
     c02:	9b 8d       	ldd	r25, Y+27	; 0x1b
     c04:	29 2b       	or	r18, r25
     c06:	32 af       	std	Z+58, r19	; 0x3a
     c08:	21 af       	std	Z+57, r18	; 0x39
	cal.dig_H3 = (uint8_t)data2[CAL_DIG_H3_LSB];
     c0a:	9d 8d       	ldd	r25, Y+29	; 0x1d
     c0c:	93 af       	std	Z+59, r25	; 0x3b
	cal.dig_H4 = (int16_t)(((uint16_t)data2[CAL_DIG_H4_MSB] << NIB_SHIFT)
							| (data2[CAL_DIG_H4_LSB] & CAL_DIG_H_MSK));
     c0e:	9f 8d       	ldd	r25, Y+31	; 0x1f
     c10:	49 2f       	mov	r20, r25
     c12:	4f 70       	andi	r20, 0x0F	; 15
	
	cal.dig_H1 = (uint8_t)data1[CAL_DIG_H1_LSB];
	cal.dig_H2 = (int16_t)(((uint16_t)data2[CAL_DIG_H2_MSB] << BYTE_SHIFT)
							| data2[CAL_DIG_H2_LSB]);
	cal.dig_H3 = (uint8_t)data2[CAL_DIG_H3_LSB];
	cal.dig_H4 = (int16_t)(((uint16_t)data2[CAL_DIG_H4_MSB] << NIB_SHIFT)
     c14:	2e 8d       	ldd	r18, Y+30	; 0x1e
     c16:	f0 e1       	ldi	r31, 0x10	; 16
     c18:	2f 9f       	mul	r18, r31
     c1a:	90 01       	movw	r18, r0
     c1c:	11 24       	eor	r1, r1
							| (data2[CAL_DIG_H4_LSB] & CAL_DIG_H_MSK));
     c1e:	24 2b       	or	r18, r20
     c20:	f7 01       	movw	r30, r14
     c22:	35 af       	std	Z+61, r19	; 0x3d
     c24:	24 af       	std	Z+60, r18	; 0x3c
	cal.dig_H5 = (int16_t)(((uint16_t)data2[CAL_DIG_H5_MSB] << NIB_SHIFT)
							| ((data2[CAL_DIG_H5_LSB] >> NIB_SHIFT) 
     c26:	92 95       	swap	r25
     c28:	9f 70       	andi	r25, 0x0F	; 15
	cal.dig_H2 = (int16_t)(((uint16_t)data2[CAL_DIG_H2_MSB] << BYTE_SHIFT)
							| data2[CAL_DIG_H2_LSB]);
	cal.dig_H3 = (uint8_t)data2[CAL_DIG_H3_LSB];
	cal.dig_H4 = (int16_t)(((uint16_t)data2[CAL_DIG_H4_MSB] << NIB_SHIFT)
							| (data2[CAL_DIG_H4_LSB] & CAL_DIG_H_MSK));
	cal.dig_H5 = (int16_t)(((uint16_t)data2[CAL_DIG_H5_MSB] << NIB_SHIFT)
     c2a:	28 a1       	ldd	r18, Y+32	; 0x20
     c2c:	f0 e1       	ldi	r31, 0x10	; 16
     c2e:	2f 9f       	mul	r18, r31
     c30:	90 01       	movw	r18, r0
     c32:	11 24       	eor	r1, r1
							| ((data2[CAL_DIG_H5_LSB] >> NIB_SHIFT) 
     c34:	29 2b       	or	r18, r25
								& CAL_DIG_H_MSK));
     c36:	f7 01       	movw	r30, r14
     c38:	37 af       	std	Z+63, r19	; 0x3f
     c3a:	26 af       	std	Z+62, r18	; 0x3e
	cal.dig_H6 = (int8_t)data2[CAL_DIG_H6_LSB];
     c3c:	e0 5c       	subi	r30, 0xC0	; 192
     c3e:	ff 4f       	sbci	r31, 0xFF	; 255
     c40:	99 a1       	ldd	r25, Y+33	; 0x21
     c42:	90 83       	st	Z, r25
	
	return false;
}
     c44:	a1 96       	adiw	r28, 0x21	; 33
     c46:	0f b6       	in	r0, 0x3f	; 63
     c48:	f8 94       	cli
     c4a:	de bf       	out	0x3e, r29	; 62
     c4c:	0f be       	out	0x3f, r0	; 63
     c4e:	cd bf       	out	0x3d, r28	; 61
     c50:	df 91       	pop	r29
     c52:	cf 91       	pop	r28
     c54:	0f 91       	pop	r16
     c56:	ff 90       	pop	r15
     c58:	ef 90       	pop	r14
     c5a:	08 95       	ret

00000c5c <_ZN6BME280C1EP3i2cP6seriall>:
 * Parameters:	ptr_i2c		- pointer to an i2c object to be used for 
 *								communicating with the BME280 sensor
 *				ptr_serial	- pointer to a serial object to be used for
 *								debugging
 ****************************************************************************/
BME280::BME280 (i2c* ptr_i2c, serial *ptr_serial, int32_t temperature_cal)
     c5c:	0f 93       	push	r16
     c5e:	1f 93       	push	r17
     c60:	cf 93       	push	r28
     c62:	df 93       	push	r29
     c64:	ec 01       	movw	r28, r24
     c66:	cb 01       	movw	r24, r22
{
	p_i2c = ptr_i2c;			// store local copy of i2c pointer for use
     c68:	79 83       	std	Y+1, r23	; 0x01
     c6a:	68 83       	st	Y, r22
	p_serial = ptr_serial;		// store local copy of serial pointer for debug
     c6c:	5b 83       	std	Y+3, r21	; 0x03
     c6e:	4a 83       	std	Y+2, r20	; 0x02
	temp_cal = temperature_cal;	// store local copy of temp cal
     c70:	0c 83       	std	Y+4, r16	; 0x04
     c72:	1d 83       	std	Y+5, r17	; 0x05
     c74:	2e 83       	std	Y+6, r18	; 0x06
     c76:	3f 83       	std	Y+7, r19	; 0x07
	
	if (p_i2c->ping(BME280_ADDR))
     c78:	6e ee       	ldi	r22, 0xEE	; 238
     c7a:	0e 94 7d 08 	call	0x10fa	; 0x10fa <_ZN3i2c4pingEh>
     c7e:	88 23       	and	r24, r24
     c80:	f9 f0       	breq	.+62     	; 0xcc0 <_ZN6BME280C1EP3i2cP6seriall+0x64>
	{
		DBG(this->p_serial, "BME280 <0x%X> ALIVE\r\n", BME280_ADDR);
     c82:	1f 92       	push	r1
     c84:	8e ee       	ldi	r24, 0xEE	; 238
     c86:	8f 93       	push	r24
     c88:	84 e9       	ldi	r24, 0x94	; 148
     c8a:	91 e0       	ldi	r25, 0x01	; 1
     c8c:	9f 93       	push	r25
     c8e:	8f 93       	push	r24
     c90:	8b ea       	ldi	r24, 0xAB	; 171
     c92:	94 e0       	ldi	r25, 0x04	; 4
     c94:	9f 93       	push	r25
     c96:	8f 93       	push	r24
     c98:	0e 94 65 0e 	call	0x1cca	; 0x1cca <sprintf>
     c9c:	6b ea       	ldi	r22, 0xAB	; 171
     c9e:	74 e0       	ldi	r23, 0x04	; 4
     ca0:	8a 81       	ldd	r24, Y+2	; 0x02
     ca2:	9b 81       	ldd	r25, Y+3	; 0x03
     ca4:	0e 94 21 0c 	call	0x1842	; 0x1842 <_ZN6serial4sendEPc>
		DBG(this->p_serial, "BME280 <0x%X> DEAD\r\n", BME280_ADDR);
		return;
	}

	// initialize the sensor registers
	if(init())
     ca8:	ce 01       	movw	r24, r28
     caa:	0e 94 53 00 	call	0xa6	; 0xa6 <_ZN6BME2804initEv>
     cae:	0f 90       	pop	r0
     cb0:	0f 90       	pop	r0
     cb2:	0f 90       	pop	r0
     cb4:	0f 90       	pop	r0
     cb6:	0f 90       	pop	r0
     cb8:	0f 90       	pop	r0
     cba:	88 23       	and	r24, r24
     cbc:	59 f1       	breq	.+86     	; 0xd14 <_ZN6BME280C1EP3i2cP6seriall+0xb8>
     cbe:	1a c0       	rjmp	.+52     	; 0xcf4 <_ZN6BME280C1EP3i2cP6seriall+0x98>
	{
		DBG(this->p_serial, "BME280 <0x%X> ALIVE\r\n", BME280_ADDR);
	}
	else
	{
		DBG(this->p_serial, "BME280 <0x%X> DEAD\r\n", BME280_ADDR);
     cc0:	1f 92       	push	r1
     cc2:	8e ee       	ldi	r24, 0xEE	; 238
     cc4:	8f 93       	push	r24
     cc6:	8a ea       	ldi	r24, 0xAA	; 170
     cc8:	91 e0       	ldi	r25, 0x01	; 1
     cca:	9f 93       	push	r25
     ccc:	8f 93       	push	r24
     cce:	8b ea       	ldi	r24, 0xAB	; 171
     cd0:	94 e0       	ldi	r25, 0x04	; 4
     cd2:	9f 93       	push	r25
     cd4:	8f 93       	push	r24
     cd6:	0e 94 65 0e 	call	0x1cca	; 0x1cca <sprintf>
     cda:	6b ea       	ldi	r22, 0xAB	; 171
     cdc:	74 e0       	ldi	r23, 0x04	; 4
     cde:	8a 81       	ldd	r24, Y+2	; 0x02
     ce0:	9b 81       	ldd	r25, Y+3	; 0x03
     ce2:	0e 94 21 0c 	call	0x1842	; 0x1842 <_ZN6serial4sendEPc>
		return;
     ce6:	0f 90       	pop	r0
     ce8:	0f 90       	pop	r0
     cea:	0f 90       	pop	r0
     cec:	0f 90       	pop	r0
     cee:	0f 90       	pop	r0
     cf0:	0f 90       	pop	r0
     cf2:	37 c0       	rjmp	.+110    	; 0xd62 <_ZN6BME280C1EP3i2cP6seriall+0x106>
	}

	// initialize the sensor registers
	if(init())
	{
		DBG(this->p_serial, "BME280::BME280 FAILED BME280::init\r\n");
     cf4:	85 e2       	ldi	r24, 0x25	; 37
     cf6:	ef eb       	ldi	r30, 0xBF	; 191
     cf8:	f1 e0       	ldi	r31, 0x01	; 1
     cfa:	ab ea       	ldi	r26, 0xAB	; 171
     cfc:	b4 e0       	ldi	r27, 0x04	; 4
     cfe:	01 90       	ld	r0, Z+
     d00:	0d 92       	st	X+, r0
     d02:	8a 95       	dec	r24
     d04:	e1 f7       	brne	.-8      	; 0xcfe <_ZN6BME280C1EP3i2cP6seriall+0xa2>
     d06:	6b ea       	ldi	r22, 0xAB	; 171
     d08:	74 e0       	ldi	r23, 0x04	; 4
     d0a:	8a 81       	ldd	r24, Y+2	; 0x02
     d0c:	9b 81       	ldd	r25, Y+3	; 0x03
     d0e:	0e 94 21 0c 	call	0x1842	; 0x1842 <_ZN6serial4sendEPc>
		return;
     d12:	27 c0       	rjmp	.+78     	; 0xd62 <_ZN6BME280C1EP3i2cP6seriall+0x106>
	}
	
	// read out cal registers for calculations
	if (read_cal())
     d14:	ce 01       	movw	r24, r28
     d16:	0e 94 60 05 	call	0xac0	; 0xac0 <_ZN6BME2808read_calEv>
     d1a:	88 23       	and	r24, r24
     d1c:	81 f0       	breq	.+32     	; 0xd3e <_ZN6BME280C1EP3i2cP6seriall+0xe2>
	{
		DBG(this->p_serial, "BME280::BME280 FAILED BME280::read_cal\r\n");
     d1e:	89 e2       	ldi	r24, 0x29	; 41
     d20:	e4 ee       	ldi	r30, 0xE4	; 228
     d22:	f1 e0       	ldi	r31, 0x01	; 1
     d24:	ab ea       	ldi	r26, 0xAB	; 171
     d26:	b4 e0       	ldi	r27, 0x04	; 4
     d28:	01 90       	ld	r0, Z+
     d2a:	0d 92       	st	X+, r0
     d2c:	8a 95       	dec	r24
     d2e:	e1 f7       	brne	.-8      	; 0xd28 <_ZN6BME280C1EP3i2cP6seriall+0xcc>
     d30:	6b ea       	ldi	r22, 0xAB	; 171
     d32:	74 e0       	ldi	r23, 0x04	; 4
     d34:	8a 81       	ldd	r24, Y+2	; 0x02
     d36:	9b 81       	ldd	r25, Y+3	; 0x03
     d38:	0e 94 21 0c 	call	0x1842	; 0x1842 <_ZN6serial4sendEPc>
		return;
     d3c:	12 c0       	rjmp	.+36     	; 0xd62 <_ZN6BME280C1EP3i2cP6seriall+0x106>
	}
	
	// initial read of data to fill sensor data
	read_data();
     d3e:	ce 01       	movw	r24, r28
     d40:	0e 94 a1 04 	call	0x942	; 0x942 <_ZN6BME2809read_dataEv>
	
	DBG(this->p_serial, "BME280 Constructor OK!\r\n");
     d44:	89 e1       	ldi	r24, 0x19	; 25
     d46:	ed e0       	ldi	r30, 0x0D	; 13
     d48:	f2 e0       	ldi	r31, 0x02	; 2
     d4a:	ab ea       	ldi	r26, 0xAB	; 171
     d4c:	b4 e0       	ldi	r27, 0x04	; 4
     d4e:	01 90       	ld	r0, Z+
     d50:	0d 92       	st	X+, r0
     d52:	8a 95       	dec	r24
     d54:	e1 f7       	brne	.-8      	; 0xd4e <_ZN6BME280C1EP3i2cP6seriall+0xf2>
     d56:	6b ea       	ldi	r22, 0xAB	; 171
     d58:	74 e0       	ldi	r23, 0x04	; 4
     d5a:	8a 81       	ldd	r24, Y+2	; 0x02
     d5c:	9b 81       	ldd	r25, Y+3	; 0x03
     d5e:	0e 94 21 0c 	call	0x1842	; 0x1842 <_ZN6serial4sendEPc>
}
     d62:	df 91       	pop	r29
     d64:	cf 91       	pop	r28
     d66:	1f 91       	pop	r17
     d68:	0f 91       	pop	r16
     d6a:	08 95       	ret

00000d6c <_ZN6BME28010BME280TaskEv>:
	
	return false;
}

void BME280::BME280Task (void)
{
     d6c:	8f 92       	push	r8
     d6e:	9f 92       	push	r9
     d70:	af 92       	push	r10
     d72:	bf 92       	push	r11
     d74:	cf 92       	push	r12
     d76:	df 92       	push	r13
     d78:	ef 92       	push	r14
     d7a:	ff 92       	push	r15
     d7c:	0f 93       	push	r16
     d7e:	1f 93       	push	r17
     d80:	cf 93       	push	r28
     d82:	df 93       	push	r29
     d84:	ec 01       	movw	r28, r24
	static uint8_t runs = 0;
	int32_t temp_f;
	
	if ((runs % 5) == 0)
     d86:	20 91 aa 04 	lds	r18, 0x04AA
     d8a:	9d ec       	ldi	r25, 0xCD	; 205
     d8c:	29 9f       	mul	r18, r25
     d8e:	91 2d       	mov	r25, r1
     d90:	11 24       	eor	r1, r1
     d92:	96 95       	lsr	r25
     d94:	96 95       	lsr	r25
     d96:	39 2f       	mov	r19, r25
     d98:	33 0f       	add	r19, r19
     d9a:	33 0f       	add	r19, r19
     d9c:	93 0f       	add	r25, r19
     d9e:	29 13       	cpse	r18, r25
     da0:	b0 c0       	rjmp	.+352    	; 0xf02 <_ZN6BME28010BME280TaskEv+0x196>
	{
		DBG(this->p_serial, "\r\nBME280 Task Running\r\n");
     da2:	0b ea       	ldi	r16, 0xAB	; 171
     da4:	14 e0       	ldi	r17, 0x04	; 4
     da6:	88 e1       	ldi	r24, 0x18	; 24
     da8:	e6 e2       	ldi	r30, 0x26	; 38
     daa:	f2 e0       	ldi	r31, 0x02	; 2
     dac:	d8 01       	movw	r26, r16
     dae:	01 90       	ld	r0, Z+
     db0:	0d 92       	st	X+, r0
     db2:	8a 95       	dec	r24
     db4:	e1 f7       	brne	.-8      	; 0xdae <_ZN6BME28010BME280TaskEv+0x42>
     db6:	b8 01       	movw	r22, r16
     db8:	8a 81       	ldd	r24, Y+2	; 0x02
     dba:	9b 81       	ldd	r25, Y+3	; 0x03
     dbc:	0e 94 21 0c 	call	0x1842	; 0x1842 <_ZN6serial4sendEPc>
		
		read_data();
     dc0:	ce 01       	movw	r24, r28
     dc2:	0e 94 a1 04 	call	0x942	; 0x942 <_ZN6BME2809read_dataEv>
		
		temp_f = TEMP_C_TO_F(temperature);	
     dc6:	c8 8c       	ldd	r12, Y+24	; 0x18
     dc8:	d9 8c       	ldd	r13, Y+25	; 0x19
     dca:	ea 8c       	ldd	r14, Y+26	; 0x1a
     dcc:	fb 8c       	ldd	r15, Y+27	; 0x1b
     dce:	d7 01       	movw	r26, r14
     dd0:	c6 01       	movw	r24, r12
     dd2:	88 0f       	add	r24, r24
     dd4:	99 1f       	adc	r25, r25
     dd6:	aa 1f       	adc	r26, r26
     dd8:	bb 1f       	adc	r27, r27
     dda:	88 0f       	add	r24, r24
     ddc:	99 1f       	adc	r25, r25
     dde:	aa 1f       	adc	r26, r26
     de0:	bb 1f       	adc	r27, r27
     de2:	88 0f       	add	r24, r24
     de4:	99 1f       	adc	r25, r25
     de6:	aa 1f       	adc	r26, r26
     de8:	bb 1f       	adc	r27, r27
     dea:	8c 0d       	add	r24, r12
     dec:	9d 1d       	adc	r25, r13
     dee:	ae 1d       	adc	r26, r14
     df0:	bf 1d       	adc	r27, r15
     df2:	bc 01       	movw	r22, r24
     df4:	cd 01       	movw	r24, r26
     df6:	60 58       	subi	r22, 0x80	; 128
     df8:	71 4c       	sbci	r23, 0xC1	; 193
     dfa:	8f 4f       	sbci	r24, 0xFF	; 255
     dfc:	9f 4f       	sbci	r25, 0xFF	; 255
     dfe:	25 e0       	ldi	r18, 0x05	; 5
     e00:	30 e0       	ldi	r19, 0x00	; 0
     e02:	40 e0       	ldi	r20, 0x00	; 0
     e04:	50 e0       	ldi	r21, 0x00	; 0
     e06:	0e 94 8b 0c 	call	0x1916	; 0x1916 <__divmodsi4>
		
		DBG(this->p_serial, "Temperature: %ld.%02ldC or %ld.%02ldF\r\n",
     e0a:	0f 2e       	mov	r0, r31
     e0c:	f4 e6       	ldi	r31, 0x64	; 100
     e0e:	8f 2e       	mov	r8, r31
     e10:	91 2c       	mov	r9, r1
     e12:	a1 2c       	mov	r10, r1
     e14:	b1 2c       	mov	r11, r1
     e16:	f0 2d       	mov	r31, r0
     e18:	ca 01       	movw	r24, r20
     e1a:	b9 01       	movw	r22, r18
     e1c:	a5 01       	movw	r20, r10
     e1e:	94 01       	movw	r18, r8
     e20:	0e 94 8b 0c 	call	0x1916	; 0x1916 <__divmodsi4>
     e24:	9f 93       	push	r25
     e26:	8f 93       	push	r24
     e28:	7f 93       	push	r23
     e2a:	6f 93       	push	r22
     e2c:	5f 93       	push	r21
     e2e:	4f 93       	push	r20
     e30:	3f 93       	push	r19
     e32:	2f 93       	push	r18
     e34:	c7 01       	movw	r24, r14
     e36:	b6 01       	movw	r22, r12
     e38:	a5 01       	movw	r20, r10
     e3a:	94 01       	movw	r18, r8
     e3c:	0e 94 8b 0c 	call	0x1916	; 0x1916 <__divmodsi4>
     e40:	9f 93       	push	r25
     e42:	8f 93       	push	r24
     e44:	7f 93       	push	r23
     e46:	6f 93       	push	r22
     e48:	5f 93       	push	r21
     e4a:	4f 93       	push	r20
     e4c:	3f 93       	push	r19
     e4e:	2f 93       	push	r18
     e50:	8e e3       	ldi	r24, 0x3E	; 62
     e52:	92 e0       	ldi	r25, 0x02	; 2
     e54:	9f 93       	push	r25
     e56:	8f 93       	push	r24
     e58:	1f 93       	push	r17
     e5a:	0f 93       	push	r16
     e5c:	0e 94 65 0e 	call	0x1cca	; 0x1cca <sprintf>
     e60:	b8 01       	movw	r22, r16
     e62:	8a 81       	ldd	r24, Y+2	; 0x02
     e64:	9b 81       	ldd	r25, Y+3	; 0x03
     e66:	0e 94 21 0c 	call	0x1842	; 0x1842 <_ZN6serial4sendEPc>
				(temperature / 100), (temperature % 100),
				(temp_f / 100), (temp_f % 100));
		
		DBG(this->p_serial, "Humidity: %lu.%lu%%\r\n",
     e6a:	8c 8d       	ldd	r24, Y+28	; 0x1c
     e6c:	9d 8d       	ldd	r25, Y+29	; 0x1d
     e6e:	ae 8d       	ldd	r26, Y+30	; 0x1e
     e70:	bf 8d       	ldd	r27, Y+31	; 0x1f
     e72:	ac 01       	movw	r20, r24
     e74:	bd 01       	movw	r22, r26
     e76:	53 70       	andi	r21, 0x03	; 3
     e78:	66 27       	eor	r22, r22
     e7a:	77 27       	eor	r23, r23
     e7c:	7f 93       	push	r23
     e7e:	6f 93       	push	r22
     e80:	5f 93       	push	r21
     e82:	4f 93       	push	r20
     e84:	07 2e       	mov	r0, r23
     e86:	7a e0       	ldi	r23, 0x0A	; 10
     e88:	b6 95       	lsr	r27
     e8a:	a7 95       	ror	r26
     e8c:	97 95       	ror	r25
     e8e:	87 95       	ror	r24
     e90:	7a 95       	dec	r23
     e92:	d1 f7       	brne	.-12     	; 0xe88 <_ZN6BME28010BME280TaskEv+0x11c>
     e94:	70 2d       	mov	r23, r0
     e96:	bf 93       	push	r27
     e98:	af 93       	push	r26
     e9a:	9f 93       	push	r25
     e9c:	8f 93       	push	r24
     e9e:	86 e6       	ldi	r24, 0x66	; 102
     ea0:	92 e0       	ldi	r25, 0x02	; 2
     ea2:	9f 93       	push	r25
     ea4:	8f 93       	push	r24
     ea6:	1f 93       	push	r17
     ea8:	0f 93       	push	r16
     eaa:	0e 94 65 0e 	call	0x1cca	; 0x1cca <sprintf>
     eae:	8d b7       	in	r24, 0x3d	; 61
     eb0:	9e b7       	in	r25, 0x3e	; 62
     eb2:	80 96       	adiw	r24, 0x20	; 32
     eb4:	0f b6       	in	r0, 0x3f	; 63
     eb6:	f8 94       	cli
     eb8:	9e bf       	out	0x3e, r25	; 62
     eba:	0f be       	out	0x3f, r0	; 63
     ebc:	8d bf       	out	0x3d, r24	; 61
     ebe:	b8 01       	movw	r22, r16
     ec0:	8a 81       	ldd	r24, Y+2	; 0x02
     ec2:	9b 81       	ldd	r25, Y+3	; 0x03
     ec4:	0e 94 21 0c 	call	0x1842	; 0x1842 <_ZN6serial4sendEPc>
			(humidity / 1024), (humidity % 1024));
			
		DBG(this->p_serial, "Pressure: %luPa\r\n",
     ec8:	8f 89       	ldd	r24, Y+23	; 0x17
     eca:	8f 93       	push	r24
     ecc:	8e 89       	ldd	r24, Y+22	; 0x16
     ece:	8f 93       	push	r24
     ed0:	8d 89       	ldd	r24, Y+21	; 0x15
     ed2:	8f 93       	push	r24
     ed4:	8c 89       	ldd	r24, Y+20	; 0x14
     ed6:	8f 93       	push	r24
     ed8:	8c e7       	ldi	r24, 0x7C	; 124
     eda:	92 e0       	ldi	r25, 0x02	; 2
     edc:	9f 93       	push	r25
     ede:	8f 93       	push	r24
     ee0:	1f 93       	push	r17
     ee2:	0f 93       	push	r16
     ee4:	0e 94 65 0e 	call	0x1cca	; 0x1cca <sprintf>
     ee8:	b8 01       	movw	r22, r16
     eea:	8a 81       	ldd	r24, Y+2	; 0x02
     eec:	9b 81       	ldd	r25, Y+3	; 0x03
     eee:	0e 94 21 0c 	call	0x1842	; 0x1842 <_ZN6serial4sendEPc>
     ef2:	8d b7       	in	r24, 0x3d	; 61
     ef4:	9e b7       	in	r25, 0x3e	; 62
     ef6:	08 96       	adiw	r24, 0x08	; 8
     ef8:	0f b6       	in	r0, 0x3f	; 63
     efa:	f8 94       	cli
     efc:	9e bf       	out	0x3e, r25	; 62
     efe:	0f be       	out	0x3f, r0	; 63
     f00:	8d bf       	out	0x3d, r24	; 61
			pressure);
	}
	
	runs++;
     f02:	80 91 aa 04 	lds	r24, 0x04AA
     f06:	8f 5f       	subi	r24, 0xFF	; 255
     f08:	80 93 aa 04 	sts	0x04AA, r24
	return;
     f0c:	df 91       	pop	r29
     f0e:	cf 91       	pop	r28
     f10:	1f 91       	pop	r17
     f12:	0f 91       	pop	r16
     f14:	ff 90       	pop	r15
     f16:	ef 90       	pop	r14
     f18:	df 90       	pop	r13
     f1a:	cf 90       	pop	r12
     f1c:	bf 90       	pop	r11
     f1e:	af 90       	pop	r10
     f20:	9f 90       	pop	r9
     f22:	8f 90       	pop	r8
     f24:	08 95       	ret

00000f26 <_ZN3i2cC1EP6serial>:
 * 
 * Parameters:	ptr_serial - a reference to the serial debug object
 ****************************************************************************/
i2c::i2c (serial *ptr_serial)
{
	p_serial = ptr_serial;	// store a local copy of serial pointer for debug
     f26:	fc 01       	movw	r30, r24
     f28:	71 83       	std	Z+1, r23	; 0x01
     f2a:	60 83       	st	Z, r22
	
	// set the bit rate to 200kHz, with no prescaler
	TWSR = 0x00;
     f2c:	10 92 b9 00 	sts	0x00B9, r1
	TWBR = 32;
     f30:	20 e2       	ldi	r18, 0x20	; 32
     f32:	20 93 b8 00 	sts	0x00B8, r18
	
	// enable i2c protocol
	TWCR = (1 << TWEN);
     f36:	24 e0       	ldi	r18, 0x04	; 4
     f38:	20 93 bc 00 	sts	0x00BC, r18
	
	DBG(this->p_serial, "i2c constructor OK!\r\n");
     f3c:	26 e1       	ldi	r18, 0x16	; 22
     f3e:	ee e8       	ldi	r30, 0x8E	; 142
     f40:	f2 e0       	ldi	r31, 0x02	; 2
     f42:	ab ea       	ldi	r26, 0xAB	; 171
     f44:	b4 e0       	ldi	r27, 0x04	; 4
     f46:	01 90       	ld	r0, Z+
     f48:	0d 92       	st	X+, r0
     f4a:	2a 95       	dec	r18
     f4c:	e1 f7       	brne	.-8      	; 0xf46 <_ZN3i2cC1EP6serial+0x20>
     f4e:	6b ea       	ldi	r22, 0xAB	; 171
     f50:	74 e0       	ldi	r23, 0x04	; 4
     f52:	fc 01       	movw	r30, r24
     f54:	80 81       	ld	r24, Z
     f56:	91 81       	ldd	r25, Z+1	; 0x01
     f58:	0e 94 21 0c 	call	0x1842	; 0x1842 <_ZN6serial4sendEPc>
     f5c:	08 95       	ret

00000f5e <_ZN3i2c5startEv>:
 * Description:	This method puts the start signal on the i2c bus
 * 
 * Return:		bool - status of operation (true = error, false = success)
 ****************************************************************************/
bool i2c::start (void)
{
     f5e:	cf 93       	push	r28
     f60:	df 93       	push	r29
     f62:	ec 01       	movw	r28, r24
	// put a start condition on the line
	TWCR = ((1 << TWSTA) | (1 << TWEN) | (1 << TWINT));
     f64:	ec eb       	ldi	r30, 0xBC	; 188
     f66:	f0 e0       	ldi	r31, 0x00	; 0
     f68:	84 ea       	ldi	r24, 0xA4	; 164
     f6a:	80 83       	st	Z, r24
	
	// wait for TWINT to go low, which signals start condition completed
	for (uint16_t twcnt = 0; !(TWCR & (1 << TWINT)); twcnt++)
     f6c:	80 81       	ld	r24, Z
     f6e:	88 23       	and	r24, r24
     f70:	ac f4       	brge	.+42     	; 0xf9c <_ZN3i2c5startEv+0x3e>
     f72:	1b c0       	rjmp	.+54     	; 0xfaa <_ZN3i2c5startEv+0x4c>
     f74:	21 50       	subi	r18, 0x01	; 1
     f76:	31 09       	sbc	r19, r1
	{
		// check for timeout condition
		if (twcnt > TW_TIMEOUT)
     f78:	a9 f4       	brne	.+42     	; 0xfa4 <_ZN3i2c5startEv+0x46>
		{
			// timeout occurred, error
			DBG(this->p_serial, "i2c::start FAILED - timed out\r\n");
     f7a:	80 e2       	ldi	r24, 0x20	; 32
     f7c:	e4 ea       	ldi	r30, 0xA4	; 164
     f7e:	f2 e0       	ldi	r31, 0x02	; 2
     f80:	ab ea       	ldi	r26, 0xAB	; 171
     f82:	b4 e0       	ldi	r27, 0x04	; 4
     f84:	01 90       	ld	r0, Z+
     f86:	0d 92       	st	X+, r0
     f88:	8a 95       	dec	r24
     f8a:	e1 f7       	brne	.-8      	; 0xf84 <_ZN3i2c5startEv+0x26>
     f8c:	6b ea       	ldi	r22, 0xAB	; 171
     f8e:	74 e0       	ldi	r23, 0x04	; 4
     f90:	88 81       	ld	r24, Y
     f92:	99 81       	ldd	r25, Y+1	; 0x01
     f94:	0e 94 21 0c 	call	0x1842	; 0x1842 <_ZN6serial4sendEPc>
			return true;
     f98:	81 e0       	ldi	r24, 0x01	; 1
     f9a:	29 c0       	rjmp	.+82     	; 0xfee <_ZN3i2c5startEv+0x90>
{
	// put a start condition on the line
	TWCR = ((1 << TWSTA) | (1 << TWEN) | (1 << TWINT));
	
	// wait for TWINT to go low, which signals start condition completed
	for (uint16_t twcnt = 0; !(TWCR & (1 << TWINT)); twcnt++)
     f9c:	21 e0       	ldi	r18, 0x01	; 1
     f9e:	34 e0       	ldi	r19, 0x04	; 4
     fa0:	ec eb       	ldi	r30, 0xBC	; 188
     fa2:	f0 e0       	ldi	r31, 0x00	; 0
     fa4:	90 81       	ld	r25, Z
     fa6:	99 23       	and	r25, r25
     fa8:	2c f7       	brge	.-54     	; 0xf74 <_ZN3i2c5startEv+0x16>
			return true;
		}
	}
	
	// check status register
	if ((TWSR & STAT_MSK) != STAT_START)
     faa:	90 91 b9 00 	lds	r25, 0x00B9
     fae:	98 7f       	andi	r25, 0xF8	; 248
     fb0:	98 30       	cpi	r25, 0x08	; 8
     fb2:	e1 f0       	breq	.+56     	; 0xfec <_ZN3i2c5startEv+0x8e>
	{
		// Status register is not a start signal, error
		DBG(this->p_serial, "i2c::start FAILED - status (0x%2X) bad\r\n", TWSR);
     fb4:	80 91 b9 00 	lds	r24, 0x00B9
     fb8:	1f 92       	push	r1
     fba:	8f 93       	push	r24
     fbc:	84 ec       	ldi	r24, 0xC4	; 196
     fbe:	92 e0       	ldi	r25, 0x02	; 2
     fc0:	9f 93       	push	r25
     fc2:	8f 93       	push	r24
     fc4:	8b ea       	ldi	r24, 0xAB	; 171
     fc6:	94 e0       	ldi	r25, 0x04	; 4
     fc8:	9f 93       	push	r25
     fca:	8f 93       	push	r24
     fcc:	0e 94 65 0e 	call	0x1cca	; 0x1cca <sprintf>
     fd0:	6b ea       	ldi	r22, 0xAB	; 171
     fd2:	74 e0       	ldi	r23, 0x04	; 4
     fd4:	88 81       	ld	r24, Y
     fd6:	99 81       	ldd	r25, Y+1	; 0x01
     fd8:	0e 94 21 0c 	call	0x1842	; 0x1842 <_ZN6serial4sendEPc>
		return true;
     fdc:	0f 90       	pop	r0
     fde:	0f 90       	pop	r0
     fe0:	0f 90       	pop	r0
     fe2:	0f 90       	pop	r0
     fe4:	0f 90       	pop	r0
     fe6:	0f 90       	pop	r0
     fe8:	81 e0       	ldi	r24, 0x01	; 1
     fea:	01 c0       	rjmp	.+2      	; 0xfee <_ZN3i2c5startEv+0x90>
	}
	
	return false;
     fec:	80 e0       	ldi	r24, 0x00	; 0
}
     fee:	df 91       	pop	r29
     ff0:	cf 91       	pop	r28
     ff2:	08 95       	ret

00000ff4 <_ZN3i2c7restartEv>:
 * Description: This method sends a repeated start signal on the i2c bus
 * 
 * Return:		bool - status of operation (true = error, false = success)
 ****************************************************************************/
bool i2c::restart (void)
{
     ff4:	cf 93       	push	r28
     ff6:	df 93       	push	r29
     ff8:	ec 01       	movw	r28, r24
	// put another start condition on the line
	TWCR = ((1 << TWSTA) | (1 << TWEN) | (1 << TWINT));
     ffa:	ec eb       	ldi	r30, 0xBC	; 188
     ffc:	f0 e0       	ldi	r31, 0x00	; 0
     ffe:	84 ea       	ldi	r24, 0xA4	; 164
    1000:	80 83       	st	Z, r24
	
	// wait for TWINT to go low, which signals start condition completed
	for (uint16_t twcnt = 0; !(TWCR & (1 << TWINT)); twcnt++)
    1002:	80 81       	ld	r24, Z
    1004:	88 23       	and	r24, r24
    1006:	ac f4       	brge	.+42     	; 0x1032 <_ZN3i2c7restartEv+0x3e>
    1008:	1b c0       	rjmp	.+54     	; 0x1040 <_ZN3i2c7restartEv+0x4c>
    100a:	21 50       	subi	r18, 0x01	; 1
    100c:	31 09       	sbc	r19, r1
	{
		// check for timeout condition
		if (twcnt > TW_TIMEOUT)
    100e:	a9 f4       	brne	.+42     	; 0x103a <_ZN3i2c7restartEv+0x46>
		{
			// timeout occurred, error
			DBG(this->p_serial, "i2c::restart FAILED - timed out\r\n");
    1010:	82 e2       	ldi	r24, 0x22	; 34
    1012:	ed ee       	ldi	r30, 0xED	; 237
    1014:	f2 e0       	ldi	r31, 0x02	; 2
    1016:	ab ea       	ldi	r26, 0xAB	; 171
    1018:	b4 e0       	ldi	r27, 0x04	; 4
    101a:	01 90       	ld	r0, Z+
    101c:	0d 92       	st	X+, r0
    101e:	8a 95       	dec	r24
    1020:	e1 f7       	brne	.-8      	; 0x101a <_ZN3i2c7restartEv+0x26>
    1022:	6b ea       	ldi	r22, 0xAB	; 171
    1024:	74 e0       	ldi	r23, 0x04	; 4
    1026:	88 81       	ld	r24, Y
    1028:	99 81       	ldd	r25, Y+1	; 0x01
    102a:	0e 94 21 0c 	call	0x1842	; 0x1842 <_ZN6serial4sendEPc>
			return true;
    102e:	81 e0       	ldi	r24, 0x01	; 1
    1030:	29 c0       	rjmp	.+82     	; 0x1084 <_ZN3i2c7restartEv+0x90>
{
	// put another start condition on the line
	TWCR = ((1 << TWSTA) | (1 << TWEN) | (1 << TWINT));
	
	// wait for TWINT to go low, which signals start condition completed
	for (uint16_t twcnt = 0; !(TWCR & (1 << TWINT)); twcnt++)
    1032:	21 e0       	ldi	r18, 0x01	; 1
    1034:	34 e0       	ldi	r19, 0x04	; 4
    1036:	ec eb       	ldi	r30, 0xBC	; 188
    1038:	f0 e0       	ldi	r31, 0x00	; 0
    103a:	90 81       	ld	r25, Z
    103c:	99 23       	and	r25, r25
    103e:	2c f7       	brge	.-54     	; 0x100a <_ZN3i2c7restartEv+0x16>
			return true;
		}
	}
	
	// check status register
	if ((TWSR & STAT_MSK) != STAT_RESTART)
    1040:	90 91 b9 00 	lds	r25, 0x00B9
    1044:	98 7f       	andi	r25, 0xF8	; 248
    1046:	90 31       	cpi	r25, 0x10	; 16
    1048:	e1 f0       	breq	.+56     	; 0x1082 <_ZN3i2c7restartEv+0x8e>
	{
		// Status register is not a repeated start signal, error
		DBG(this->p_serial, "i2c::restart FAILED - status (0x%2X) bad\r\n", TWSR);
    104a:	80 91 b9 00 	lds	r24, 0x00B9
    104e:	1f 92       	push	r1
    1050:	8f 93       	push	r24
    1052:	8f e0       	ldi	r24, 0x0F	; 15
    1054:	93 e0       	ldi	r25, 0x03	; 3
    1056:	9f 93       	push	r25
    1058:	8f 93       	push	r24
    105a:	8b ea       	ldi	r24, 0xAB	; 171
    105c:	94 e0       	ldi	r25, 0x04	; 4
    105e:	9f 93       	push	r25
    1060:	8f 93       	push	r24
    1062:	0e 94 65 0e 	call	0x1cca	; 0x1cca <sprintf>
    1066:	6b ea       	ldi	r22, 0xAB	; 171
    1068:	74 e0       	ldi	r23, 0x04	; 4
    106a:	88 81       	ld	r24, Y
    106c:	99 81       	ldd	r25, Y+1	; 0x01
    106e:	0e 94 21 0c 	call	0x1842	; 0x1842 <_ZN6serial4sendEPc>
		return true;
    1072:	0f 90       	pop	r0
    1074:	0f 90       	pop	r0
    1076:	0f 90       	pop	r0
    1078:	0f 90       	pop	r0
    107a:	0f 90       	pop	r0
    107c:	0f 90       	pop	r0
    107e:	81 e0       	ldi	r24, 0x01	; 1
    1080:	01 c0       	rjmp	.+2      	; 0x1084 <_ZN3i2c7restartEv+0x90>
	}
	
	return false;	
    1082:	80 e0       	ldi	r24, 0x00	; 0
}
    1084:	df 91       	pop	r29
    1086:	cf 91       	pop	r28
    1088:	08 95       	ret

0000108a <_ZN3i2c10write_byteEh>:
 * 
 * Parameters:	data - the byte of data being written to the bus
 * Return:		bool - status of operation (true = ack, false = nack)
 ****************************************************************************/
bool i2c::write_byte (uint8_t data)
{	
    108a:	cf 93       	push	r28
    108c:	df 93       	push	r29
    108e:	ac 01       	movw	r20, r24
	TWDR = data;
    1090:	60 93 bb 00 	sts	0x00BB, r22
	TWCR = ((1 << TWINT) | (1 << TWEN));
    1094:	ec eb       	ldi	r30, 0xBC	; 188
    1096:	f0 e0       	ldi	r31, 0x00	; 0
    1098:	94 e8       	ldi	r25, 0x84	; 132
    109a:	90 83       	st	Z, r25
	

	// wait for TWINT to go low, which signals write condition sent
	for (uint16_t twcnt = 0; !(TWCR & (1 << TWINT)); twcnt++)
    109c:	90 81       	ld	r25, Z
    109e:	99 23       	and	r25, r25
    10a0:	b4 f4       	brge	.+44     	; 0x10ce <_ZN3i2c10write_byteEh+0x44>
    10a2:	1c c0       	rjmp	.+56     	; 0x10dc <_ZN3i2c10write_byteEh+0x52>
    10a4:	21 50       	subi	r18, 0x01	; 1
    10a6:	31 09       	sbc	r19, r1
	{
		// check for timeout condition
		if (twcnt > TW_TIMEOUT)
    10a8:	b1 f4       	brne	.+44     	; 0x10d6 <_ZN3i2c10write_byteEh+0x4c>
    10aa:	ea 01       	movw	r28, r20
		{
			// timeout occurred, error
			DBG(this->p_serial, "i2c::write_byte FAILED - timed out\r\n");
    10ac:	85 e2       	ldi	r24, 0x25	; 37
    10ae:	ea e3       	ldi	r30, 0x3A	; 58
    10b0:	f3 e0       	ldi	r31, 0x03	; 3
    10b2:	ab ea       	ldi	r26, 0xAB	; 171
    10b4:	b4 e0       	ldi	r27, 0x04	; 4
    10b6:	01 90       	ld	r0, Z+
    10b8:	0d 92       	st	X+, r0
    10ba:	8a 95       	dec	r24
    10bc:	e1 f7       	brne	.-8      	; 0x10b6 <_ZN3i2c10write_byteEh+0x2c>
    10be:	6b ea       	ldi	r22, 0xAB	; 171
    10c0:	74 e0       	ldi	r23, 0x04	; 4
    10c2:	88 81       	ld	r24, Y
    10c4:	99 81       	ldd	r25, Y+1	; 0x01
    10c6:	0e 94 21 0c 	call	0x1842	; 0x1842 <_ZN6serial4sendEPc>
			return true;
    10ca:	81 e0       	ldi	r24, 0x01	; 1
    10cc:	13 c0       	rjmp	.+38     	; 0x10f4 <_ZN3i2c10write_byteEh+0x6a>
	TWDR = data;
	TWCR = ((1 << TWINT) | (1 << TWEN));
	

	// wait for TWINT to go low, which signals write condition sent
	for (uint16_t twcnt = 0; !(TWCR & (1 << TWINT)); twcnt++)
    10ce:	21 e0       	ldi	r18, 0x01	; 1
    10d0:	34 e0       	ldi	r19, 0x04	; 4
    10d2:	ec eb       	ldi	r30, 0xBC	; 188
    10d4:	f0 e0       	ldi	r31, 0x00	; 0
    10d6:	90 81       	ld	r25, Z
    10d8:	99 23       	and	r25, r25
    10da:	24 f7       	brge	.-56     	; 0x10a4 <_ZN3i2c10write_byteEh+0x1a>
			return true;
		}
	}
	
	// check the ACK status of the write
	switch (TWSR & STAT_MSK)
    10dc:	80 91 b9 00 	lds	r24, 0x00B9
    10e0:	88 7f       	andi	r24, 0xF8	; 248
    10e2:	88 32       	cpi	r24, 0x28	; 40
    10e4:	31 f0       	breq	.+12     	; 0x10f2 <_ZN3i2c10write_byteEh+0x68>
    10e6:	80 34       	cpi	r24, 0x40	; 64
    10e8:	21 f0       	breq	.+8      	; 0x10f2 <_ZN3i2c10write_byteEh+0x68>
    10ea:	88 31       	cpi	r24, 0x18	; 24
    10ec:	11 f0       	breq	.+4      	; 0x10f2 <_ZN3i2c10write_byteEh+0x68>
			// An ACK was received
			return true;
		
		default:
			// a Nack of Some kind received
			return false;	
    10ee:	80 e0       	ldi	r24, 0x00	; 0
    10f0:	01 c0       	rjmp	.+2      	; 0x10f4 <_ZN3i2c10write_byteEh+0x6a>
	{
		case (STAT_WRITE_ACK):
		case (STAT_TRANS_ACK):
		case (STAT_READ_ACK):
			// An ACK was received
			return true;
    10f2:	81 e0       	ldi	r24, 0x01	; 1
			// a Nack of Some kind received
			return false;	
	}
	
	return false;
}
    10f4:	df 91       	pop	r29
    10f6:	cf 91       	pop	r28
    10f8:	08 95       	ret

000010fa <_ZN3i2c4pingEh>:
 * 
 * Parameters:	addr - the address to be checked
 * Return:		bool - state of if an ACK was received
 ****************************************************************************/
bool i2c::ping (uint8_t addr)
{
    10fa:	1f 93       	push	r17
    10fc:	cf 93       	push	r28
    10fe:	df 93       	push	r29
    1100:	ec 01       	movw	r28, r24
    1102:	16 2f       	mov	r17, r22
	bool sign_of_life;
	start();
    1104:	0e 94 af 07 	call	0xf5e	; 0xf5e <_ZN3i2c5startEv>
	sign_of_life = write_byte(addr);
    1108:	61 2f       	mov	r22, r17
    110a:	ce 01       	movw	r24, r28
    110c:	0e 94 45 08 	call	0x108a	; 0x108a <_ZN3i2c10write_byteEh>
 * 
 * Return:		bool - status of operation (true = error, false = success)
 ****************************************************************************/
bool i2c::stop (void)
{
	TWCR = ((1 << TWINT) | (1 << TWSTO) | (1 << TWEN));
    1110:	94 e9       	ldi	r25, 0x94	; 148
    1112:	90 93 bc 00 	sts	0x00BC, r25
	start();
	sign_of_life = write_byte(addr);
	stop();
	
	return sign_of_life;
}
    1116:	df 91       	pop	r29
    1118:	cf 91       	pop	r28
    111a:	1f 91       	pop	r17
    111c:	08 95       	ret

0000111e <_ZN3i2c9read_byteEb>:
 * Parameters:	ack - true if an ack is expected after the byte,
 *					  false if a nack is expected after they byte
 * Return:		uint8_t - the byte of data received, or 0xFF if error occurs
 ****************************************************************************/
uint8_t i2c::read_byte (bool ack)
{
    111e:	cf 93       	push	r28
    1120:	df 93       	push	r29
    1122:	ac 01       	movw	r20, r24
	//uint8_t expected_response;
	
	if (ack) // an ack is expected, so we are expecting more data after this
    1124:	66 23       	and	r22, r22
    1126:	21 f0       	breq	.+8      	; 0x1130 <_ZN3i2c9read_byteEb+0x12>
	{
		TWCR = ((1 << TWINT) | (1 << TWEN) | (1 << TWEA));
    1128:	84 ec       	ldi	r24, 0xC4	; 196
    112a:	80 93 bc 00 	sts	0x00BC, r24
    112e:	03 c0       	rjmp	.+6      	; 0x1136 <_ZN3i2c9read_byteEb+0x18>
		//expected_response = STAT_TRANS_ACK; // changed from STAT_REC_ACK
	}
	else
	{
		TWCR = ((1 << TWINT) | (1 << TWEN));
    1130:	84 e8       	ldi	r24, 0x84	; 132
    1132:	80 93 bc 00 	sts	0x00BC, r24
		//expected_response = STAT_REC_NACK;
	}
	
	// wait for TWINT to go low, which signals read complete
	for (uint16_t twcnt = 0; !(TWCR & (1 << TWINT)); twcnt++)
    1136:	90 91 bc 00 	lds	r25, 0x00BC
    113a:	99 23       	and	r25, r25
    113c:	b4 f4       	brge	.+44     	; 0x116a <_ZN3i2c9read_byteEb+0x4c>
    113e:	1c c0       	rjmp	.+56     	; 0x1178 <_ZN3i2c9read_byteEb+0x5a>
    1140:	21 50       	subi	r18, 0x01	; 1
    1142:	31 09       	sbc	r19, r1
	{
		// check for timeout condition
		if (twcnt > TW_TIMEOUT)
    1144:	b1 f4       	brne	.+44     	; 0x1172 <_ZN3i2c9read_byteEb+0x54>
    1146:	ea 01       	movw	r28, r20
		{
			// timeout occurred, error
			DBG(this->p_serial, "i2c::read_byte FAILED - timed out\r\n");
    1148:	84 e2       	ldi	r24, 0x24	; 36
    114a:	ef e5       	ldi	r30, 0x5F	; 95
    114c:	f3 e0       	ldi	r31, 0x03	; 3
    114e:	ab ea       	ldi	r26, 0xAB	; 171
    1150:	b4 e0       	ldi	r27, 0x04	; 4
    1152:	01 90       	ld	r0, Z+
    1154:	0d 92       	st	X+, r0
    1156:	8a 95       	dec	r24
    1158:	e1 f7       	brne	.-8      	; 0x1152 <_ZN3i2c9read_byteEb+0x34>
    115a:	6b ea       	ldi	r22, 0xAB	; 171
    115c:	74 e0       	ldi	r23, 0x04	; 4
    115e:	88 81       	ld	r24, Y
    1160:	99 81       	ldd	r25, Y+1	; 0x01
    1162:	0e 94 21 0c 	call	0x1842	; 0x1842 <_ZN6serial4sendEPc>
			return 0xFF;
    1166:	8f ef       	ldi	r24, 0xFF	; 255
    1168:	09 c0       	rjmp	.+18     	; 0x117c <_ZN3i2c9read_byteEb+0x5e>
		TWCR = ((1 << TWINT) | (1 << TWEN));
		//expected_response = STAT_REC_NACK;
	}
	
	// wait for TWINT to go low, which signals read complete
	for (uint16_t twcnt = 0; !(TWCR & (1 << TWINT)); twcnt++)
    116a:	21 e0       	ldi	r18, 0x01	; 1
    116c:	34 e0       	ldi	r19, 0x04	; 4
    116e:	ec eb       	ldi	r30, 0xBC	; 188
    1170:	f0 e0       	ldi	r31, 0x00	; 0
    1172:	90 81       	ld	r25, Z
    1174:	99 23       	and	r25, r25
    1176:	24 f7       	brge	.-56     	; 0x1140 <_ZN3i2c9read_byteEb+0x22>
			DBG(this->p_serial, "i2c::read_byte FAILED - timed out\r\n");
			return 0xFF;
		}
	}
	// everything ok, return the data, which is stored in TWDR
	return TWDR;
    1178:	80 91 bb 00 	lds	r24, 0x00BB
}
    117c:	df 91       	pop	r29
    117e:	cf 91       	pop	r28
    1180:	08 95       	ret

00001182 <_ZN3i2c5writeEhhh>:
 *				reg	 - the register to be written to
 *				data - the data being written
 * Return:		bool - status of operation (true = error, false = success)
 ****************************************************************************/
bool i2c::write (uint8_t addr, uint8_t reg, uint8_t data)
{
    1182:	ff 92       	push	r15
    1184:	0f 93       	push	r16
    1186:	1f 93       	push	r17
    1188:	cf 93       	push	r28
    118a:	df 93       	push	r29
    118c:	ec 01       	movw	r28, r24
    118e:	16 2f       	mov	r17, r22
    1190:	04 2f       	mov	r16, r20
    1192:	f2 2e       	mov	r15, r18
	start();
    1194:	0e 94 af 07 	call	0xf5e	; 0xf5e <_ZN3i2c5startEv>
	if (!write_byte(addr) || !write_byte(reg) || !write_byte(data))
    1198:	61 2f       	mov	r22, r17
    119a:	ce 01       	movw	r24, r28
    119c:	0e 94 45 08 	call	0x108a	; 0x108a <_ZN3i2c10write_byteEh>
    11a0:	88 23       	and	r24, r24
    11a2:	61 f0       	breq	.+24     	; 0x11bc <_ZN3i2c5writeEhhh+0x3a>
    11a4:	60 2f       	mov	r22, r16
    11a6:	ce 01       	movw	r24, r28
    11a8:	0e 94 45 08 	call	0x108a	; 0x108a <_ZN3i2c10write_byteEh>
    11ac:	88 23       	and	r24, r24
    11ae:	31 f0       	breq	.+12     	; 0x11bc <_ZN3i2c5writeEhhh+0x3a>
    11b0:	6f 2d       	mov	r22, r15
    11b2:	ce 01       	movw	r24, r28
    11b4:	0e 94 45 08 	call	0x108a	; 0x108a <_ZN3i2c10write_byteEh>
    11b8:	81 11       	cpse	r24, r1
    11ba:	20 c0       	rjmp	.+64     	; 0x11fc <_ZN3i2c5writeEhhh+0x7a>
	{
		// an error occurred, one of these had a NACK
		DBG(this->p_serial,
    11bc:	1f 92       	push	r1
    11be:	ff 92       	push	r15
    11c0:	1f 92       	push	r1
    11c2:	0f 93       	push	r16
    11c4:	1f 92       	push	r1
    11c6:	1f 93       	push	r17
    11c8:	83 e8       	ldi	r24, 0x83	; 131
    11ca:	93 e0       	ldi	r25, 0x03	; 3
    11cc:	9f 93       	push	r25
    11ce:	8f 93       	push	r24
    11d0:	8b ea       	ldi	r24, 0xAB	; 171
    11d2:	94 e0       	ldi	r25, 0x04	; 4
    11d4:	9f 93       	push	r25
    11d6:	8f 93       	push	r24
    11d8:	0e 94 65 0e 	call	0x1cca	; 0x1cca <sprintf>
    11dc:	6b ea       	ldi	r22, 0xAB	; 171
    11de:	74 e0       	ldi	r23, 0x04	; 4
    11e0:	88 81       	ld	r24, Y
    11e2:	99 81       	ldd	r25, Y+1	; 0x01
    11e4:	0e 94 21 0c 	call	0x1842	; 0x1842 <_ZN6serial4sendEPc>
			"NACK on write <addr:0x%2X, reg:0x%2X, data:0x%2X>\r\n",
			addr, reg, data);
		return true;
    11e8:	8d b7       	in	r24, 0x3d	; 61
    11ea:	9e b7       	in	r25, 0x3e	; 62
    11ec:	0a 96       	adiw	r24, 0x0a	; 10
    11ee:	0f b6       	in	r0, 0x3f	; 63
    11f0:	f8 94       	cli
    11f2:	9e bf       	out	0x3e, r25	; 62
    11f4:	0f be       	out	0x3f, r0	; 63
    11f6:	8d bf       	out	0x3d, r24	; 61
    11f8:	81 e0       	ldi	r24, 0x01	; 1
    11fa:	04 c0       	rjmp	.+8      	; 0x1204 <_ZN3i2c5writeEhhh+0x82>
 * 
 * Return:		bool - status of operation (true = error, false = success)
 ****************************************************************************/
bool i2c::stop (void)
{
	TWCR = ((1 << TWINT) | (1 << TWSTO) | (1 << TWEN));
    11fc:	84 e9       	ldi	r24, 0x94	; 148
    11fe:	80 93 bc 00 	sts	0x00BC, r24
		return true;
	}
	stop();
	
	// all good, success!
	return false;
    1202:	80 e0       	ldi	r24, 0x00	; 0
}
    1204:	df 91       	pop	r29
    1206:	cf 91       	pop	r28
    1208:	1f 91       	pop	r17
    120a:	0f 91       	pop	r16
    120c:	ff 90       	pop	r15
    120e:	08 95       	ret

00001210 <_ZN3i2c4readEhhPhh>:
 *				p_buff - the buffer to hold the data being read
 *				count  - the total number of bytes to read
 * Return:		bool   - status of operation (true = error, false = success)
 ****************************************************************************/
bool i2c::read (uint8_t addr, uint8_t reg, uint8_t* p_buff, uint8_t count)
{
    1210:	cf 92       	push	r12
    1212:	df 92       	push	r13
    1214:	ef 92       	push	r14
    1216:	ff 92       	push	r15
    1218:	0f 93       	push	r16
    121a:	1f 93       	push	r17
    121c:	cf 93       	push	r28
    121e:	df 93       	push	r29
    1220:	7c 01       	movw	r14, r24
    1222:	c6 2f       	mov	r28, r22
    1224:	14 2f       	mov	r17, r20
    1226:	69 01       	movw	r12, r18
		start();
    1228:	0e 94 af 07 	call	0xf5e	; 0xf5e <_ZN3i2c5startEv>
		if (!write_byte(addr) || !write_byte(reg))
    122c:	6c 2f       	mov	r22, r28
    122e:	c7 01       	movw	r24, r14
    1230:	0e 94 45 08 	call	0x108a	; 0x108a <_ZN3i2c10write_byteEh>
    1234:	88 23       	and	r24, r24
    1236:	39 f0       	breq	.+14     	; 0x1246 <_ZN3i2c4readEhhPhh+0x36>
    1238:	61 2f       	mov	r22, r17
    123a:	c7 01       	movw	r24, r14
    123c:	0e 94 45 08 	call	0x108a	; 0x108a <_ZN3i2c10write_byteEh>
    1240:	d8 2f       	mov	r29, r24
    1242:	81 11       	cpse	r24, r1
    1244:	1f c0       	rjmp	.+62     	; 0x1284 <_ZN3i2c4readEhhPhh+0x74>
		{
			// an error occurred, one of these had a NACK
			DBG(this->p_serial, "Write NACK on read <addr:0x%2X, reg:0x%2X>\r\n",
    1246:	1f 92       	push	r1
    1248:	1f 93       	push	r17
    124a:	1f 92       	push	r1
    124c:	cf 93       	push	r28
    124e:	87 ef       	ldi	r24, 0xF7	; 247
    1250:	93 e0       	ldi	r25, 0x03	; 3
    1252:	9f 93       	push	r25
    1254:	8f 93       	push	r24
    1256:	8b ea       	ldi	r24, 0xAB	; 171
    1258:	94 e0       	ldi	r25, 0x04	; 4
    125a:	9f 93       	push	r25
    125c:	8f 93       	push	r24
    125e:	0e 94 65 0e 	call	0x1cca	; 0x1cca <sprintf>
    1262:	6b ea       	ldi	r22, 0xAB	; 171
    1264:	74 e0       	ldi	r23, 0x04	; 4
    1266:	f7 01       	movw	r30, r14
    1268:	80 81       	ld	r24, Z
    126a:	91 81       	ldd	r25, Z+1	; 0x01
    126c:	0e 94 21 0c 	call	0x1842	; 0x1842 <_ZN6serial4sendEPc>
				addr, reg);
			return true;
    1270:	8d b7       	in	r24, 0x3d	; 61
    1272:	9e b7       	in	r25, 0x3e	; 62
    1274:	08 96       	adiw	r24, 0x08	; 8
    1276:	0f b6       	in	r0, 0x3f	; 63
    1278:	f8 94       	cli
    127a:	9e bf       	out	0x3e, r25	; 62
    127c:	0f be       	out	0x3f, r0	; 63
    127e:	8d bf       	out	0x3d, r24	; 61
    1280:	d1 e0       	ldi	r29, 0x01	; 1
    1282:	44 c0       	rjmp	.+136    	; 0x130c <_ZN3i2c4readEhhPhh+0xfc>
 * 
 * Return:		bool - status of operation (true = error, false = success)
 ****************************************************************************/
bool i2c::stop (void)
{
	TWCR = ((1 << TWINT) | (1 << TWSTO) | (1 << TWEN));
    1284:	84 e9       	ldi	r24, 0x94	; 148
    1286:	80 93 bc 00 	sts	0x00BC, r24
			DBG(this->p_serial, "Write NACK on read <addr:0x%2X, reg:0x%2X>\r\n",
				addr, reg);
			return true;
		}
		stop();
		restart();	// change?
    128a:	c7 01       	movw	r24, r14
    128c:	0e 94 fa 07 	call	0xff4	; 0xff4 <_ZN3i2c7restartEv>
		// read the info
		if (!write_byte(addr | READ_BIT))
    1290:	c1 60       	ori	r28, 0x01	; 1
    1292:	6c 2f       	mov	r22, r28
    1294:	c7 01       	movw	r24, r14
    1296:	0e 94 45 08 	call	0x108a	; 0x108a <_ZN3i2c10write_byteEh>
    129a:	88 23       	and	r24, r24
    129c:	19 f0       	breq	.+6      	; 0x12a4 <_ZN3i2c4readEhhPhh+0x94>
				addr | READ_BIT);
			return 0xFF;
		}
		
		// Read the data
		for (uint8_t ndx = 1; ndx < count; ndx++)
    129e:	02 30       	cpi	r16, 0x02	; 2
    12a0:	d8 f4       	brcc	.+54     	; 0x12d8 <_ZN3i2c4readEhhPhh+0xc8>
    12a2:	2a c0       	rjmp	.+84     	; 0x12f8 <_ZN3i2c4readEhhPhh+0xe8>
		restart();	// change?
		// read the info
		if (!write_byte(addr | READ_BIT))
		{
			// an error occurred, a NACK was received
			DBG(this->p_serial, "NACK on read <addr:0x%2X>\r\n",
    12a4:	1f 92       	push	r1
    12a6:	cf 93       	push	r28
    12a8:	84 e2       	ldi	r24, 0x24	; 36
    12aa:	94 e0       	ldi	r25, 0x04	; 4
    12ac:	9f 93       	push	r25
    12ae:	8f 93       	push	r24
    12b0:	8b ea       	ldi	r24, 0xAB	; 171
    12b2:	94 e0       	ldi	r25, 0x04	; 4
    12b4:	9f 93       	push	r25
    12b6:	8f 93       	push	r24
    12b8:	0e 94 65 0e 	call	0x1cca	; 0x1cca <sprintf>
    12bc:	6b ea       	ldi	r22, 0xAB	; 171
    12be:	74 e0       	ldi	r23, 0x04	; 4
    12c0:	f7 01       	movw	r30, r14
    12c2:	80 81       	ld	r24, Z
    12c4:	91 81       	ldd	r25, Z+1	; 0x01
    12c6:	0e 94 21 0c 	call	0x1842	; 0x1842 <_ZN6serial4sendEPc>
				addr | READ_BIT);
			return 0xFF;
    12ca:	0f 90       	pop	r0
    12cc:	0f 90       	pop	r0
    12ce:	0f 90       	pop	r0
    12d0:	0f 90       	pop	r0
    12d2:	0f 90       	pop	r0
    12d4:	0f 90       	pop	r0
    12d6:	1a c0       	rjmp	.+52     	; 0x130c <_ZN3i2c4readEhhPhh+0xfc>
    12d8:	e6 01       	movw	r28, r12
    12da:	02 50       	subi	r16, 0x02	; 2
    12dc:	10 e0       	ldi	r17, 0x00	; 0
    12de:	0f 5f       	subi	r16, 0xFF	; 255
    12e0:	1f 4f       	sbci	r17, 0xFF	; 255
    12e2:	c0 0e       	add	r12, r16
    12e4:	d1 1e       	adc	r13, r17
    12e6:	86 01       	movw	r16, r12
		
		// Read the data
		for (uint8_t ndx = 1; ndx < count; ndx++)
		{
			// still have more to read, so expect an ACK
			*p_buff++ = read_byte(true);
    12e8:	61 e0       	ldi	r22, 0x01	; 1
    12ea:	c7 01       	movw	r24, r14
    12ec:	0e 94 8f 08 	call	0x111e	; 0x111e <_ZN3i2c9read_byteEb>
    12f0:	89 93       	st	Y+, r24
				addr | READ_BIT);
			return 0xFF;
		}
		
		// Read the data
		for (uint8_t ndx = 1; ndx < count; ndx++)
    12f2:	c0 17       	cp	r28, r16
    12f4:	d1 07       	cpc	r29, r17
    12f6:	c1 f7       	brne	.-16     	; 0x12e8 <_ZN3i2c4readEhhPhh+0xd8>
		{
			// still have more to read, so expect an ACK
			*p_buff++ = read_byte(true);
		}
		// Read last bit of data, so expect a NACK
		*p_buff++ = read_byte(false);
    12f8:	60 e0       	ldi	r22, 0x00	; 0
    12fa:	c7 01       	movw	r24, r14
    12fc:	0e 94 8f 08 	call	0x111e	; 0x111e <_ZN3i2c9read_byteEb>
    1300:	f6 01       	movw	r30, r12
    1302:	80 83       	st	Z, r24
 * 
 * Return:		bool - status of operation (true = error, false = success)
 ****************************************************************************/
bool i2c::stop (void)
{
	TWCR = ((1 << TWINT) | (1 << TWSTO) | (1 << TWEN));
    1304:	84 e9       	ldi	r24, 0x94	; 148
    1306:	80 93 bc 00 	sts	0x00BC, r24
		}
		// Read last bit of data, so expect a NACK
		*p_buff++ = read_byte(false);
		stop();
		
		return false;
    130a:	d0 e0       	ldi	r29, 0x00	; 0
    130c:	8d 2f       	mov	r24, r29
    130e:	df 91       	pop	r29
    1310:	cf 91       	pop	r28
    1312:	1f 91       	pop	r17
    1314:	0f 91       	pop	r16
    1316:	ff 90       	pop	r15
    1318:	ef 90       	pop	r14
    131a:	df 90       	pop	r13
    131c:	cf 90       	pop	r12
    131e:	08 95       	ret

00001320 <main>:

/* initialize shared variables */
char dbg_str[SERIAL_MAX_SEND];

int main(void)
{
    1320:	cf 93       	push	r28
    1322:	df 93       	push	r29
    1324:	cd b7       	in	r28, 0x3d	; 61
    1326:	de b7       	in	r29, 0x3e	; 62
    1328:	c1 55       	subi	r28, 0x51	; 81
    132a:	d1 09       	sbc	r29, r1
    132c:	0f b6       	in	r0, 0x3f	; 63
    132e:	f8 94       	cli
    1330:	de bf       	out	0x3e, r29	; 62
    1332:	0f be       	out	0x3f, r0	; 63
    1334:	cd bf       	out	0x3d, r28	; 61
	/* create serial object */
	serial ser_dev = serial(9600, 16000000);
    1336:	20 e0       	ldi	r18, 0x00	; 0
    1338:	34 e2       	ldi	r19, 0x24	; 36
    133a:	44 ef       	ldi	r20, 0xF4	; 244
    133c:	50 e0       	ldi	r21, 0x00	; 0
    133e:	60 e8       	ldi	r22, 0x80	; 128
    1340:	75 e2       	ldi	r23, 0x25	; 37
    1342:	ce 01       	movw	r24, r28
    1344:	8a 5b       	subi	r24, 0xBA	; 186
    1346:	9f 4f       	sbci	r25, 0xFF	; 255
    1348:	0e 94 0e 0c 	call	0x181c	; 0x181c <_ZN6serialC1Ejm>
	
	// create a i2c object 
	i2c my_i2c = i2c(&ser_dev);
    134c:	be 01       	movw	r22, r28
    134e:	6a 5b       	subi	r22, 0xBA	; 186
    1350:	7f 4f       	sbci	r23, 0xFF	; 255
    1352:	ce 01       	movw	r24, r28
    1354:	80 5b       	subi	r24, 0xB0	; 176
    1356:	9f 4f       	sbci	r25, 0xFF	; 255
    1358:	0e 94 93 07 	call	0xf26	; 0xf26 <_ZN3i2cC1EP6serial>
	
	// create a BME280 object
	BME280 my_BME280 = BME280(&my_i2c, &ser_dev, 278);
    135c:	06 e1       	ldi	r16, 0x16	; 22
    135e:	11 e0       	ldi	r17, 0x01	; 1
    1360:	20 e0       	ldi	r18, 0x00	; 0
    1362:	30 e0       	ldi	r19, 0x00	; 0
    1364:	ae 01       	movw	r20, r28
    1366:	4a 5b       	subi	r20, 0xBA	; 186
    1368:	5f 4f       	sbci	r21, 0xFF	; 255
    136a:	be 01       	movw	r22, r28
    136c:	60 5b       	subi	r22, 0xB0	; 176
    136e:	7f 4f       	sbci	r23, 0xFF	; 255
    1370:	ce 01       	movw	r24, r28
    1372:	01 96       	adiw	r24, 0x01	; 1
    1374:	0e 94 2e 06 	call	0xc5c	; 0xc5c <_ZN6BME280C1EP3i2cP6seriall>
	
	
	// create a water temperature sensor - surface
	oneWire my_oneWire_surface_temp = oneWire(&ser_dev, 0, ID_SURFACE_TEMP);
    1378:	21 e0       	ldi	r18, 0x01	; 1
    137a:	40 e0       	ldi	r20, 0x00	; 0
    137c:	be 01       	movw	r22, r28
    137e:	6a 5b       	subi	r22, 0xBA	; 186
    1380:	7f 4f       	sbci	r23, 0xFF	; 255
    1382:	ce 01       	movw	r24, r28
    1384:	84 5b       	subi	r24, 0xB4	; 180
    1386:	9f 4f       	sbci	r25, 0xFF	; 255
    1388:	0e 94 d9 09 	call	0x13b2	; 0x13b2 <_ZN7oneWireC1EP6serialhh>
	*/
	
    while (1) 
    {
		
		my_BME280.BME280Task();
    138c:	ce 01       	movw	r24, r28
    138e:	01 96       	adiw	r24, 0x01	; 1
    1390:	0e 94 b6 06 	call	0xd6c	; 0xd6c <_ZN6BME28010BME280TaskEv>
		
		my_oneWire_surface_temp.oneWireTask();
    1394:	ce 01       	movw	r24, r28
    1396:	84 5b       	subi	r24, 0xB4	; 180
    1398:	9f 4f       	sbci	r25, 0xFF	; 255
    139a:	0e 94 28 0b 	call	0x1650	; 0x1650 <_ZN7oneWire11oneWireTaskEv>
	#else
		//round up by default
		__ticks_dc = (uint32_t)(ceil(fabs(__tmp)));
	#endif

	__builtin_avr_delay_cycles(__ticks_dc);
    139e:	2f ef       	ldi	r18, 0xFF	; 255
    13a0:	83 ed       	ldi	r24, 0xD3	; 211
    13a2:	90 e3       	ldi	r25, 0x30	; 48
    13a4:	21 50       	subi	r18, 0x01	; 1
    13a6:	80 40       	sbci	r24, 0x00	; 0
    13a8:	90 40       	sbci	r25, 0x00	; 0
    13aa:	e1 f7       	brne	.-8      	; 0x13a4 <main+0x84>
    13ac:	00 c0       	rjmp	.+0      	; 0x13ae <main+0x8e>
    13ae:	00 00       	nop
    13b0:	ed cf       	rjmp	.-38     	; 0x138c <main+0x6c>

000013b2 <_ZN7oneWireC1EP6serialhh>:
 * 
 * Parameters:	ptr_serial 	- a reference to the serial debug object
 *				pin 		- the pin on the ATmega328P the sensor outputs to.
 *				id 			- the unique id of the sensor
 ****************************************************************************/
oneWire::oneWire(serial *ptr_serial, uint8_t pin, uint8_t id)
    13b2:	cf 93       	push	r28
    13b4:	df 93       	push	r29
    13b6:	ec 01       	movw	r28, r24
{
	p_serial = ptr_serial;	// store local copy for debug
    13b8:	79 83       	std	Y+1, r23	; 0x01
    13ba:	68 83       	st	Y, r22
	data_line = pin;		// store local copy
    13bc:	4a 83       	std	Y+2, r20	; 0x02
	dev_id = id;			// store local copy
    13be:	2b 83       	std	Y+3, r18	; 0x03
	
	// make the data an input
	INPUT(DATA_DDR, data_line);
    13c0:	24 b1       	in	r18, 0x04	; 4
    13c2:	81 e0       	ldi	r24, 0x01	; 1
    13c4:	90 e0       	ldi	r25, 0x00	; 0
    13c6:	02 c0       	rjmp	.+4      	; 0x13cc <_ZN7oneWireC1EP6serialhh+0x1a>
    13c8:	88 0f       	add	r24, r24
    13ca:	99 1f       	adc	r25, r25
    13cc:	4a 95       	dec	r20
    13ce:	e2 f7       	brpl	.-8      	; 0x13c8 <_ZN7oneWireC1EP6serialhh+0x16>
    13d0:	80 95       	com	r24
    13d2:	82 23       	and	r24, r18
    13d4:	84 b9       	out	0x04, r24	; 4

	DBG(this->p_serial, "oneWire Constructor ok! Device id: %d\r\n", dev_id);
    13d6:	8b 81       	ldd	r24, Y+3	; 0x03
    13d8:	1f 92       	push	r1
    13da:	8f 93       	push	r24
    13dc:	80 e4       	ldi	r24, 0x40	; 64
    13de:	94 e0       	ldi	r25, 0x04	; 4
    13e0:	9f 93       	push	r25
    13e2:	8f 93       	push	r24
    13e4:	8b ea       	ldi	r24, 0xAB	; 171
    13e6:	94 e0       	ldi	r25, 0x04	; 4
    13e8:	9f 93       	push	r25
    13ea:	8f 93       	push	r24
    13ec:	0e 94 65 0e 	call	0x1cca	; 0x1cca <sprintf>
    13f0:	6b ea       	ldi	r22, 0xAB	; 171
    13f2:	74 e0       	ldi	r23, 0x04	; 4
    13f4:	88 81       	ld	r24, Y
    13f6:	99 81       	ldd	r25, Y+1	; 0x01
    13f8:	0e 94 21 0c 	call	0x1842	; 0x1842 <_ZN6serial4sendEPc>
    13fc:	0f 90       	pop	r0
    13fe:	0f 90       	pop	r0
    1400:	0f 90       	pop	r0
    1402:	0f 90       	pop	r0
    1404:	0f 90       	pop	r0
    1406:	0f 90       	pop	r0
}
    1408:	df 91       	pop	r29
    140a:	cf 91       	pop	r28
    140c:	08 95       	ret

0000140e <_ZN7oneWire5resetEv>:
 * Description:	This method resets the oneWire device.
 *
 * Return:		bool - if the device is ready.
 ****************************************************************************/
bool oneWire::reset (void)
{
    140e:	fc 01       	movw	r30, r24
	bool presence_pulse;
	uint8_t retries = 125;
	
	// make pin an input
	INPUT(DATA_DDR, data_line);
    1410:	24 b1       	in	r18, 0x04	; 4
    1412:	81 e0       	ldi	r24, 0x01	; 1
    1414:	90 e0       	ldi	r25, 0x00	; 0
    1416:	02 80       	ldd	r0, Z+2	; 0x02
    1418:	02 c0       	rjmp	.+4      	; 0x141e <_ZN7oneWire5resetEv+0x10>
    141a:	88 0f       	add	r24, r24
    141c:	99 1f       	adc	r25, r25
    141e:	0a 94       	dec	r0
    1420:	e2 f7       	brpl	.-8      	; 0x141a <_ZN7oneWire5resetEv+0xc>
    1422:	80 95       	com	r24
    1424:	82 23       	and	r24, r18
    1426:	84 b9       	out	0x04, r24	; 4
    1428:	4c e7       	ldi	r20, 0x7C	; 124
    142a:	03 c0       	rjmp	.+6      	; 0x1432 <_ZN7oneWire5resetEv+0x24>
    142c:	41 50       	subi	r20, 0x01	; 1
	
	// wait for wire to go high
	do 
	{
		if (--retries == 0)
    142e:	09 f4       	brne	.+2      	; 0x1432 <_ZN7oneWire5resetEv+0x24>
    1430:	4e c0       	rjmp	.+156    	; 0x14ce <_ZN7oneWire5resetEv+0xc0>
	#else
		//round up by default
		__ticks_dc = (uint32_t)(ceil(fabs(__tmp)));
	#endif

	__builtin_avr_delay_cycles(__ticks_dc);
    1432:	2a e0       	ldi	r18, 0x0A	; 10
    1434:	2a 95       	dec	r18
    1436:	f1 f7       	brne	.-4      	; 0x1434 <_ZN7oneWire5resetEv+0x26>
    1438:	00 c0       	rjmp	.+0      	; 0x143a <_ZN7oneWire5resetEv+0x2c>
		{
			return false;
		}
		_delay_us(2);
	} while (!(DATA_PIN & (1 << data_line)));
    143a:	23 b1       	in	r18, 0x03	; 3
    143c:	92 81       	ldd	r25, Z+2	; 0x02
    143e:	69 2f       	mov	r22, r25
    1440:	30 e0       	ldi	r19, 0x00	; 0
    1442:	02 c0       	rjmp	.+4      	; 0x1448 <_ZN7oneWire5resetEv+0x3a>
    1444:	35 95       	asr	r19
    1446:	27 95       	ror	r18
    1448:	9a 95       	dec	r25
    144a:	e2 f7       	brpl	.-8      	; 0x1444 <_ZN7oneWire5resetEv+0x36>
	
	// make pin an input
	INPUT(DATA_DDR, data_line);
	
	// wait for wire to go high
	do 
    144c:	20 ff       	sbrs	r18, 0
    144e:	ee cf       	rjmp	.-36     	; 0x142c <_ZN7oneWire5resetEv+0x1e>
		}
		_delay_us(2);
	} while (!(DATA_PIN & (1 << data_line)));
	
	// set data_line low
	DATA_PORT &= ~(1 << data_line);
    1450:	35 b1       	in	r19, 0x05	; 5
    1452:	81 e0       	ldi	r24, 0x01	; 1
    1454:	90 e0       	ldi	r25, 0x00	; 0
    1456:	ac 01       	movw	r20, r24
    1458:	02 c0       	rjmp	.+4      	; 0x145e <_ZN7oneWire5resetEv+0x50>
    145a:	44 0f       	add	r20, r20
    145c:	55 1f       	adc	r21, r21
    145e:	6a 95       	dec	r22
    1460:	e2 f7       	brpl	.-8      	; 0x145a <_ZN7oneWire5resetEv+0x4c>
    1462:	24 2f       	mov	r18, r20
    1464:	20 95       	com	r18
    1466:	23 23       	and	r18, r19
    1468:	25 b9       	out	0x05, r18	; 5
	
	// set data_line as output
	OUTPUT(DATA_DDR, data_line);
    146a:	44 b1       	in	r20, 0x04	; 4
    146c:	9c 01       	movw	r18, r24
    146e:	02 80       	ldd	r0, Z+2	; 0x02
    1470:	02 c0       	rjmp	.+4      	; 0x1476 <_ZN7oneWire5resetEv+0x68>
    1472:	22 0f       	add	r18, r18
    1474:	33 1f       	adc	r19, r19
    1476:	0a 94       	dec	r0
    1478:	e2 f7       	brpl	.-8      	; 0x1472 <_ZN7oneWire5resetEv+0x64>
    147a:	24 2b       	or	r18, r20
    147c:	24 b9       	out	0x04, r18	; 4
    147e:	af e7       	ldi	r26, 0x7F	; 127
    1480:	b7 e0       	ldi	r27, 0x07	; 7
    1482:	11 97       	sbiw	r26, 0x01	; 1
    1484:	f1 f7       	brne	.-4      	; 0x1482 <_ZN7oneWire5resetEv+0x74>
    1486:	00 c0       	rjmp	.+0      	; 0x1488 <_ZN7oneWire5resetEv+0x7a>
    1488:	00 00       	nop
	
	_delay_us(480);
		
	// set data_line as input
	INPUT(DATA_DDR, data_line);
    148a:	24 b1       	in	r18, 0x04	; 4
    148c:	02 80       	ldd	r0, Z+2	; 0x02
    148e:	02 c0       	rjmp	.+4      	; 0x1494 <_ZN7oneWire5resetEv+0x86>
    1490:	88 0f       	add	r24, r24
    1492:	99 1f       	adc	r25, r25
    1494:	0a 94       	dec	r0
    1496:	e2 f7       	brpl	.-8      	; 0x1490 <_ZN7oneWire5resetEv+0x82>
    1498:	80 95       	com	r24
    149a:	82 23       	and	r24, r18
    149c:	84 b9       	out	0x04, r24	; 4
    149e:	87 e1       	ldi	r24, 0x17	; 23
    14a0:	91 e0       	ldi	r25, 0x01	; 1
    14a2:	01 97       	sbiw	r24, 0x01	; 1
    14a4:	f1 f7       	brne	.-4      	; 0x14a2 <_ZN7oneWire5resetEv+0x94>
    14a6:	00 c0       	rjmp	.+0      	; 0x14a8 <_ZN7oneWire5resetEv+0x9a>
    14a8:	00 00       	nop
	
	_delay_us(70);
	
	presence_pulse = (bool)!((DATA_PIN & (1 << data_line)));
    14aa:	83 b1       	in	r24, 0x03	; 3
    14ac:	90 e0       	ldi	r25, 0x00	; 0
    14ae:	02 80       	ldd	r0, Z+2	; 0x02
    14b0:	02 c0       	rjmp	.+4      	; 0x14b6 <_ZN7oneWire5resetEv+0xa8>
    14b2:	95 95       	asr	r25
    14b4:	87 95       	ror	r24
    14b6:	0a 94       	dec	r0
    14b8:	e2 f7       	brpl	.-8      	; 0x14b2 <_ZN7oneWire5resetEv+0xa4>
    14ba:	a1 e0       	ldi	r26, 0x01	; 1
    14bc:	8a 27       	eor	r24, r26
    14be:	81 70       	andi	r24, 0x01	; 1
    14c0:	e7 e6       	ldi	r30, 0x67	; 103
    14c2:	f6 e0       	ldi	r31, 0x06	; 6
    14c4:	31 97       	sbiw	r30, 0x01	; 1
    14c6:	f1 f7       	brne	.-4      	; 0x14c4 <_ZN7oneWire5resetEv+0xb6>
    14c8:	00 c0       	rjmp	.+0      	; 0x14ca <_ZN7oneWire5resetEv+0xbc>
    14ca:	00 00       	nop
	
	_delay_us(410);
	
	return presence_pulse;
    14cc:	08 95       	ret
	// wait for wire to go high
	do 
	{
		if (--retries == 0)
		{
			return false;
    14ce:	80 e0       	ldi	r24, 0x00	; 0
	presence_pulse = (bool)!((DATA_PIN & (1 << data_line)));
	
	_delay_us(410);
	
	return presence_pulse;
}
    14d0:	08 95       	ret

000014d2 <_ZN7oneWire7write_1Ev>:
/*****************************************************************************
 * Method:		write_1
 * Description:	This method writes a logial high to the oneWire device.
 ****************************************************************************/
void oneWire::write_1 (void)
{
    14d2:	fc 01       	movw	r30, r24
	// set data_line low
	DATA_PORT &= ~(1 << data_line);
    14d4:	95 b1       	in	r25, 0x05	; 5
    14d6:	21 e0       	ldi	r18, 0x01	; 1
    14d8:	30 e0       	ldi	r19, 0x00	; 0
    14da:	a9 01       	movw	r20, r18
    14dc:	02 80       	ldd	r0, Z+2	; 0x02
    14de:	02 c0       	rjmp	.+4      	; 0x14e4 <_ZN7oneWire7write_1Ev+0x12>
    14e0:	44 0f       	add	r20, r20
    14e2:	55 1f       	adc	r21, r21
    14e4:	0a 94       	dec	r0
    14e6:	e2 f7       	brpl	.-8      	; 0x14e0 <_ZN7oneWire7write_1Ev+0xe>
    14e8:	84 2f       	mov	r24, r20
    14ea:	80 95       	com	r24
    14ec:	89 23       	and	r24, r25
    14ee:	85 b9       	out	0x05, r24	; 5
	
	// make data_line an output
	OUTPUT(DATA_DDR, data_line);
    14f0:	44 b1       	in	r20, 0x04	; 4
    14f2:	c9 01       	movw	r24, r18
    14f4:	02 80       	ldd	r0, Z+2	; 0x02
    14f6:	02 c0       	rjmp	.+4      	; 0x14fc <_ZN7oneWire7write_1Ev+0x2a>
    14f8:	88 0f       	add	r24, r24
    14fa:	99 1f       	adc	r25, r25
    14fc:	0a 94       	dec	r0
    14fe:	e2 f7       	brpl	.-8      	; 0x14f8 <_ZN7oneWire7write_1Ev+0x26>
    1500:	84 2b       	or	r24, r20
    1502:	84 b9       	out	0x04, r24	; 4
    1504:	85 e3       	ldi	r24, 0x35	; 53
    1506:	8a 95       	dec	r24
    1508:	f1 f7       	brne	.-4      	; 0x1506 <_ZN7oneWire7write_1Ev+0x34>
    150a:	00 00       	nop
	
	_delay_us(10);
	
	// make data_line an input
	INPUT(DATA_DDR, data_line);
    150c:	94 b1       	in	r25, 0x04	; 4
    150e:	02 80       	ldd	r0, Z+2	; 0x02
    1510:	02 c0       	rjmp	.+4      	; 0x1516 <_ZN7oneWire7write_1Ev+0x44>
    1512:	22 0f       	add	r18, r18
    1514:	33 1f       	adc	r19, r19
    1516:	0a 94       	dec	r0
    1518:	e2 f7       	brpl	.-8      	; 0x1512 <_ZN7oneWire7write_1Ev+0x40>
    151a:	20 95       	com	r18
    151c:	29 23       	and	r18, r25
    151e:	24 b9       	out	0x04, r18	; 4
    1520:	8b ed       	ldi	r24, 0xDB	; 219
    1522:	90 e0       	ldi	r25, 0x00	; 0
    1524:	01 97       	sbiw	r24, 0x01	; 1
    1526:	f1 f7       	brne	.-4      	; 0x1524 <_ZN7oneWire7write_1Ev+0x52>
    1528:	00 c0       	rjmp	.+0      	; 0x152a <_ZN7oneWire7write_1Ev+0x58>
    152a:	00 00       	nop
    152c:	08 95       	ret

0000152e <_ZN7oneWire7write_0Ev>:
/*****************************************************************************
 * Method:		write_0
 * Description:	This method writes a logial low to the oneWire device.
 ****************************************************************************/
void oneWire::write_0 (void)
{
    152e:	fc 01       	movw	r30, r24
	// set data_line low
	DATA_PORT &= ~(1 << data_line);
    1530:	95 b1       	in	r25, 0x05	; 5
    1532:	21 e0       	ldi	r18, 0x01	; 1
    1534:	30 e0       	ldi	r19, 0x00	; 0
    1536:	a9 01       	movw	r20, r18
    1538:	02 80       	ldd	r0, Z+2	; 0x02
    153a:	02 c0       	rjmp	.+4      	; 0x1540 <_ZN7oneWire7write_0Ev+0x12>
    153c:	44 0f       	add	r20, r20
    153e:	55 1f       	adc	r21, r21
    1540:	0a 94       	dec	r0
    1542:	e2 f7       	brpl	.-8      	; 0x153c <_ZN7oneWire7write_0Ev+0xe>
    1544:	84 2f       	mov	r24, r20
    1546:	80 95       	com	r24
    1548:	89 23       	and	r24, r25
    154a:	85 b9       	out	0x05, r24	; 5
	
	// make data_line an output
	OUTPUT(DATA_DDR, data_line);
    154c:	44 b1       	in	r20, 0x04	; 4
    154e:	c9 01       	movw	r24, r18
    1550:	02 80       	ldd	r0, Z+2	; 0x02
    1552:	02 c0       	rjmp	.+4      	; 0x1558 <_ZN7oneWire7write_0Ev+0x2a>
    1554:	88 0f       	add	r24, r24
    1556:	99 1f       	adc	r25, r25
    1558:	0a 94       	dec	r0
    155a:	e2 f7       	brpl	.-8      	; 0x1554 <_ZN7oneWire7write_0Ev+0x26>
    155c:	84 2b       	or	r24, r20
    155e:	84 b9       	out	0x04, r24	; 4
    1560:	83 e0       	ldi	r24, 0x03	; 3
    1562:	91 e0       	ldi	r25, 0x01	; 1
    1564:	01 97       	sbiw	r24, 0x01	; 1
    1566:	f1 f7       	brne	.-4      	; 0x1564 <_ZN7oneWire7write_0Ev+0x36>
    1568:	00 c0       	rjmp	.+0      	; 0x156a <_ZN7oneWire7write_0Ev+0x3c>
    156a:	00 00       	nop
	
	_delay_us(65);
	
	// make data_line an input
	INPUT(DATA_DDR, data_line);
    156c:	94 b1       	in	r25, 0x04	; 4
    156e:	02 80       	ldd	r0, Z+2	; 0x02
    1570:	02 c0       	rjmp	.+4      	; 0x1576 <_ZN7oneWire7write_0Ev+0x48>
    1572:	22 0f       	add	r18, r18
    1574:	33 1f       	adc	r19, r19
    1576:	0a 94       	dec	r0
    1578:	e2 f7       	brpl	.-8      	; 0x1572 <_ZN7oneWire7write_0Ev+0x44>
    157a:	20 95       	com	r18
    157c:	29 23       	and	r18, r25
    157e:	24 b9       	out	0x04, r18	; 4
    1580:	9a e1       	ldi	r25, 0x1A	; 26
    1582:	9a 95       	dec	r25
    1584:	f1 f7       	brne	.-4      	; 0x1582 <_ZN7oneWire7write_0Ev+0x54>
    1586:	00 c0       	rjmp	.+0      	; 0x1588 <_ZN7oneWire7write_0Ev+0x5a>
    1588:	08 95       	ret

0000158a <_ZN7oneWire10write_byteEh>:
 * Description:	This method writes one byte to the oneWire device.
 *
 * Parameters:	data - the data to write to the device
 ****************************************************************************/
void oneWire::write_byte (uint8_t data)
{
    158a:	0f 93       	push	r16
    158c:	1f 93       	push	r17
    158e:	cf 93       	push	r28
    1590:	df 93       	push	r29
    1592:	8c 01       	movw	r16, r24
    1594:	d6 2f       	mov	r29, r22
    1596:	c8 e0       	ldi	r28, 0x08	; 8
	for (uint8_t i = 0; i < 8; i++)
	{
		if (data & 0x01)
    1598:	d0 ff       	sbrs	r29, 0
    159a:	04 c0       	rjmp	.+8      	; 0x15a4 <_ZN7oneWire10write_byteEh+0x1a>
		{
			write_1();
    159c:	c8 01       	movw	r24, r16
    159e:	0e 94 69 0a 	call	0x14d2	; 0x14d2 <_ZN7oneWire7write_1Ev>
    15a2:	03 c0       	rjmp	.+6      	; 0x15aa <_ZN7oneWire10write_byteEh+0x20>
		}
		else
		{
			write_0();
    15a4:	c8 01       	movw	r24, r16
    15a6:	0e 94 97 0a 	call	0x152e	; 0x152e <_ZN7oneWire7write_0Ev>
		}
		data >>= 1;
    15aa:	d6 95       	lsr	r29
    15ac:	c1 50       	subi	r28, 0x01	; 1
 *
 * Parameters:	data - the data to write to the device
 ****************************************************************************/
void oneWire::write_byte (uint8_t data)
{
	for (uint8_t i = 0; i < 8; i++)
    15ae:	a1 f7       	brne	.-24     	; 0x1598 <_ZN7oneWire10write_byteEh+0xe>
		{
			write_0();
		}
		data >>= 1;
	}
}
    15b0:	df 91       	pop	r29
    15b2:	cf 91       	pop	r28
    15b4:	1f 91       	pop	r17
    15b6:	0f 91       	pop	r16
    15b8:	08 95       	ret

000015ba <_ZN7oneWire9read_byteEv>:
/*****************************************************************************
 * Method:		read_byte
 * Description:	This method reads one byte from the oneWire device.
 ****************************************************************************/
uint8_t oneWire::read_byte (void)
{
    15ba:	1f 93       	push	r17
    15bc:	cf 93       	push	r28
    15be:	df 93       	push	r29
    15c0:	fc 01       	movw	r30, r24
    15c2:	a8 e0       	ldi	r26, 0x08	; 8
    15c4:	b0 e0       	ldi	r27, 0x00	; 0
	uint8_t data_in;
	uint8_t data_read = 0;
	
	for (uint8_t bit_msk = 0x01; bit_msk; bit_msk <<= 1)
    15c6:	11 e0       	ldi	r17, 0x01	; 1
 * Description:	This method reads one byte from the oneWire device.
 ****************************************************************************/
uint8_t oneWire::read_byte (void)
{
	uint8_t data_in;
	uint8_t data_read = 0;
    15c8:	80 e0       	ldi	r24, 0x00	; 0
	
	for (uint8_t bit_msk = 0x01; bit_msk; bit_msk <<= 1)
	{
		// make data_line low
		DATA_PORT &= ~(1 << data_line);
    15ca:	21 e0       	ldi	r18, 0x01	; 1
    15cc:	30 e0       	ldi	r19, 0x00	; 0
    15ce:	45 b1       	in	r20, 0x05	; 5
    15d0:	b9 01       	movw	r22, r18
    15d2:	02 80       	ldd	r0, Z+2	; 0x02
    15d4:	02 c0       	rjmp	.+4      	; 0x15da <_ZN7oneWire9read_byteEv+0x20>
    15d6:	66 0f       	add	r22, r22
    15d8:	77 1f       	adc	r23, r23
    15da:	0a 94       	dec	r0
    15dc:	e2 f7       	brpl	.-8      	; 0x15d6 <_ZN7oneWire9read_byteEv+0x1c>
    15de:	96 2f       	mov	r25, r22
    15e0:	90 95       	com	r25
    15e2:	94 23       	and	r25, r20
    15e4:	95 b9       	out	0x05, r25	; 5
		// make data_line output
		OUTPUT(DATA_DDR, data_line);
    15e6:	94 b1       	in	r25, 0x04	; 4
    15e8:	a9 01       	movw	r20, r18
    15ea:	02 80       	ldd	r0, Z+2	; 0x02
    15ec:	02 c0       	rjmp	.+4      	; 0x15f2 <_ZN7oneWire9read_byteEv+0x38>
    15ee:	44 0f       	add	r20, r20
    15f0:	55 1f       	adc	r21, r21
    15f2:	0a 94       	dec	r0
    15f4:	e2 f7       	brpl	.-8      	; 0x15ee <_ZN7oneWire9read_byteEv+0x34>
    15f6:	49 2b       	or	r20, r25
    15f8:	44 b9       	out	0x04, r20	; 4
    15fa:	90 e1       	ldi	r25, 0x10	; 16
    15fc:	9a 95       	dec	r25
    15fe:	f1 f7       	brne	.-4      	; 0x15fc <_ZN7oneWire9read_byteEv+0x42>
		
		_delay_us(3);
		// make data_line input
		INPUT(DATA_DDR, data_line);
    1600:	44 b1       	in	r20, 0x04	; 4
    1602:	b9 01       	movw	r22, r18
    1604:	02 80       	ldd	r0, Z+2	; 0x02
    1606:	02 c0       	rjmp	.+4      	; 0x160c <_ZN7oneWire9read_byteEv+0x52>
    1608:	66 0f       	add	r22, r22
    160a:	77 1f       	adc	r23, r23
    160c:	0a 94       	dec	r0
    160e:	e2 f7       	brpl	.-8      	; 0x1608 <_ZN7oneWire9read_byteEv+0x4e>
    1610:	96 2f       	mov	r25, r22
    1612:	90 95       	com	r25
    1614:	94 23       	and	r25, r20
    1616:	94 b9       	out	0x04, r25	; 4
    1618:	c5 e3       	ldi	r28, 0x35	; 53
    161a:	ca 95       	dec	r28
    161c:	f1 f7       	brne	.-4      	; 0x161a <_ZN7oneWire9read_byteEv+0x60>
    161e:	00 00       	nop
		_delay_us(10);
		
		data_in = DATA_PIN & (1 << data_line);
    1620:	93 b1       	in	r25, 0x03	; 3
    1622:	a9 01       	movw	r20, r18
    1624:	02 80       	ldd	r0, Z+2	; 0x02
    1626:	02 c0       	rjmp	.+4      	; 0x162c <_ZN7oneWire9read_byteEv+0x72>
    1628:	44 0f       	add	r20, r20
    162a:	55 1f       	adc	r21, r21
    162c:	0a 94       	dec	r0
    162e:	e2 f7       	brpl	.-8      	; 0x1628 <_ZN7oneWire9read_byteEv+0x6e>
    1630:	49 23       	and	r20, r25
    1632:	c3 ed       	ldi	r28, 0xD3	; 211
    1634:	d0 e0       	ldi	r29, 0x00	; 0
    1636:	21 97       	sbiw	r28, 0x01	; 1
    1638:	f1 f7       	brne	.-4      	; 0x1636 <_ZN7oneWire9read_byteEv+0x7c>
    163a:	00 c0       	rjmp	.+0      	; 0x163c <_ZN7oneWire9read_byteEv+0x82>
    163c:	00 00       	nop
		_delay_us(53);
		
		if (data_in)
    163e:	41 11       	cpse	r20, r1
		{
			data_read |= bit_msk;
    1640:	81 2b       	or	r24, r17
uint8_t oneWire::read_byte (void)
{
	uint8_t data_in;
	uint8_t data_read = 0;
	
	for (uint8_t bit_msk = 0x01; bit_msk; bit_msk <<= 1)
    1642:	11 0f       	add	r17, r17
    1644:	11 97       	sbiw	r26, 0x01	; 1
    1646:	19 f6       	brne	.-122    	; 0x15ce <_ZN7oneWire9read_byteEv+0x14>
			data_read |= bit_msk;
		}
	}
	
	return data_read;
}
    1648:	df 91       	pop	r29
    164a:	cf 91       	pop	r28
    164c:	1f 91       	pop	r17
    164e:	08 95       	ret

00001650 <_ZN7oneWire11oneWireTaskEv>:
/*****************************************************************************
 * Method:		oneWireTask
 * Description:	This method runs the oneWire task
 ****************************************************************************/
void oneWire::oneWireTask (void)
{
    1650:	0f 93       	push	r16
    1652:	1f 93       	push	r17
    1654:	cf 93       	push	r28
    1656:	df 93       	push	r29
    1658:	ec 01       	movw	r28, r24
	
	uint8_t low_byte, high_byte;
	int16_t temp;
	int32_t temp_f;
	
	if ((runs % 5) == 0)
    165a:	20 91 aa 05 	lds	r18, 0x05AA
    165e:	9d ec       	ldi	r25, 0xCD	; 205
    1660:	29 9f       	mul	r18, r25
    1662:	91 2d       	mov	r25, r1
    1664:	11 24       	eor	r1, r1
    1666:	96 95       	lsr	r25
    1668:	96 95       	lsr	r25
    166a:	39 2f       	mov	r19, r25
    166c:	33 0f       	add	r19, r19
    166e:	33 0f       	add	r19, r19
    1670:	93 0f       	add	r25, r19
    1672:	29 13       	cpse	r18, r25
    1674:	9a c0       	rjmp	.+308    	; 0x17aa <_ZN7oneWire11oneWireTaskEv+0x15a>
	{
		DBG(this->p_serial, "\r\nRunning oneWireTask\r\n");
    1676:	88 e1       	ldi	r24, 0x18	; 24
    1678:	e8 e6       	ldi	r30, 0x68	; 104
    167a:	f4 e0       	ldi	r31, 0x04	; 4
    167c:	ab ea       	ldi	r26, 0xAB	; 171
    167e:	b4 e0       	ldi	r27, 0x04	; 4
    1680:	01 90       	ld	r0, Z+
    1682:	0d 92       	st	X+, r0
    1684:	8a 95       	dec	r24
    1686:	e1 f7       	brne	.-8      	; 0x1680 <_ZN7oneWire11oneWireTaskEv+0x30>
    1688:	6b ea       	ldi	r22, 0xAB	; 171
    168a:	74 e0       	ldi	r23, 0x04	; 4
    168c:	88 81       	ld	r24, Y
    168e:	99 81       	ldd	r25, Y+1	; 0x01
    1690:	0e 94 21 0c 	call	0x1842	; 0x1842 <_ZN6serial4sendEPc>
		
		// perform temperature conversion
		reset();
    1694:	ce 01       	movw	r24, r28
    1696:	0e 94 07 0a 	call	0x140e	; 0x140e <_ZN7oneWire5resetEv>
		write_byte(0xCC);	// skip ROM
    169a:	6c ec       	ldi	r22, 0xCC	; 204
    169c:	ce 01       	movw	r24, r28
    169e:	0e 94 c5 0a 	call	0x158a	; 0x158a <_ZN7oneWire10write_byteEh>
		write_byte(0x44);	// single temp conversion
    16a2:	64 e4       	ldi	r22, 0x44	; 68
    16a4:	ce 01       	movw	r24, r28
    16a6:	0e 94 c5 0a 	call	0x158a	; 0x158a <_ZN7oneWire10write_byteEh>
		
		// read in scratch pad
		reset();
    16aa:	ce 01       	movw	r24, r28
    16ac:	0e 94 07 0a 	call	0x140e	; 0x140e <_ZN7oneWire5resetEv>
		write_byte(0xCC);	// skip ROM
    16b0:	6c ec       	ldi	r22, 0xCC	; 204
    16b2:	ce 01       	movw	r24, r28
    16b4:	0e 94 c5 0a 	call	0x158a	; 0x158a <_ZN7oneWire10write_byteEh>
		write_byte(0xBE);	// read scratchpad
    16b8:	6e eb       	ldi	r22, 0xBE	; 190
    16ba:	ce 01       	movw	r24, r28
    16bc:	0e 94 c5 0a 	call	0x158a	; 0x158a <_ZN7oneWire10write_byteEh>
		
		// read temperature
		low_byte = read_byte();
    16c0:	ce 01       	movw	r24, r28
    16c2:	0e 94 dd 0a 	call	0x15ba	; 0x15ba <_ZN7oneWire9read_byteEv>
    16c6:	18 2f       	mov	r17, r24
		high_byte = read_byte();
    16c8:	ce 01       	movw	r24, r28
    16ca:	0e 94 dd 0a 	call	0x15ba	; 0x15ba <_ZN7oneWire9read_byteEv>
		temp = (high_byte << BYTE_SHIFT) | low_byte;
    16ce:	21 2f       	mov	r18, r17
    16d0:	30 e0       	ldi	r19, 0x00	; 0
    16d2:	a9 01       	movw	r20, r18
    16d4:	58 2b       	or	r21, r24
 * Description:	This method converts the raw temperature data to human 
 * 				readable values
 ****************************************************************************/
int16_t oneWire::convert_temp(int16_t raw)
{
	return (raw * 6) + (raw / 4);
    16d6:	8a 01       	movw	r16, r20
    16d8:	00 0f       	add	r16, r16
    16da:	11 1f       	adc	r17, r17
    16dc:	98 01       	movw	r18, r16
    16de:	24 0f       	add	r18, r20
    16e0:	35 1f       	adc	r19, r21
    16e2:	22 0f       	add	r18, r18
    16e4:	33 1f       	adc	r19, r19
    16e6:	8a 01       	movw	r16, r20
    16e8:	55 23       	and	r21, r21
    16ea:	14 f4       	brge	.+4      	; 0x16f0 <_ZN7oneWire11oneWireTaskEv+0xa0>
    16ec:	0d 5f       	subi	r16, 0xFD	; 253
    16ee:	1f 4f       	sbci	r17, 0xFF	; 255
    16f0:	15 95       	asr	r17
    16f2:	07 95       	ror	r16
    16f4:	15 95       	asr	r17
    16f6:	07 95       	ror	r16
    16f8:	02 0f       	add	r16, r18
    16fa:	13 1f       	adc	r17, r19
		// read temperature
		low_byte = read_byte();
		high_byte = read_byte();
		temp = (high_byte << BYTE_SHIFT) | low_byte;
		temp = convert_temp(temp);
		temp_f = TEMP_C_TO_F((int32_t)temp);
    16fc:	c8 01       	movw	r24, r16
    16fe:	01 2e       	mov	r0, r17
    1700:	00 0c       	add	r0, r0
    1702:	aa 0b       	sbc	r26, r26
    1704:	bb 0b       	sbc	r27, r27
    1706:	ac 01       	movw	r20, r24
    1708:	bd 01       	movw	r22, r26
    170a:	44 0f       	add	r20, r20
    170c:	55 1f       	adc	r21, r21
    170e:	66 1f       	adc	r22, r22
    1710:	77 1f       	adc	r23, r23
    1712:	44 0f       	add	r20, r20
    1714:	55 1f       	adc	r21, r21
    1716:	66 1f       	adc	r22, r22
    1718:	77 1f       	adc	r23, r23
    171a:	44 0f       	add	r20, r20
    171c:	55 1f       	adc	r21, r21
    171e:	66 1f       	adc	r22, r22
    1720:	77 1f       	adc	r23, r23
    1722:	84 0f       	add	r24, r20
    1724:	95 1f       	adc	r25, r21
    1726:	a6 1f       	adc	r26, r22
    1728:	b7 1f       	adc	r27, r23
    172a:	bc 01       	movw	r22, r24
    172c:	cd 01       	movw	r24, r26
    172e:	60 58       	subi	r22, 0x80	; 128
    1730:	71 4c       	sbci	r23, 0xC1	; 193
    1732:	8f 4f       	sbci	r24, 0xFF	; 255
    1734:	9f 4f       	sbci	r25, 0xFF	; 255
    1736:	25 e0       	ldi	r18, 0x05	; 5
    1738:	30 e0       	ldi	r19, 0x00	; 0
    173a:	40 e0       	ldi	r20, 0x00	; 0
    173c:	50 e0       	ldi	r21, 0x00	; 0
    173e:	0e 94 8b 0c 	call	0x1916	; 0x1916 <__divmodsi4>
		
		DBG(this->p_serial, "temp sensor %d: %d.%02dC or %ld.%02ldF\r\n", dev_id, 
    1742:	ca 01       	movw	r24, r20
    1744:	b9 01       	movw	r22, r18
    1746:	24 e6       	ldi	r18, 0x64	; 100
    1748:	30 e0       	ldi	r19, 0x00	; 0
    174a:	40 e0       	ldi	r20, 0x00	; 0
    174c:	50 e0       	ldi	r21, 0x00	; 0
    174e:	0e 94 8b 0c 	call	0x1916	; 0x1916 <__divmodsi4>
    1752:	9f 93       	push	r25
    1754:	8f 93       	push	r24
    1756:	7f 93       	push	r23
    1758:	6f 93       	push	r22
    175a:	5f 93       	push	r21
    175c:	4f 93       	push	r20
    175e:	3f 93       	push	r19
    1760:	2f 93       	push	r18
    1762:	c8 01       	movw	r24, r16
    1764:	64 e6       	ldi	r22, 0x64	; 100
    1766:	70 e0       	ldi	r23, 0x00	; 0
    1768:	0e 94 55 0c 	call	0x18aa	; 0x18aa <__divmodhi4>
    176c:	9f 93       	push	r25
    176e:	8f 93       	push	r24
    1770:	7f 93       	push	r23
    1772:	6f 93       	push	r22
    1774:	8b 81       	ldd	r24, Y+3	; 0x03
    1776:	1f 92       	push	r1
    1778:	8f 93       	push	r24
    177a:	80 e8       	ldi	r24, 0x80	; 128
    177c:	94 e0       	ldi	r25, 0x04	; 4
    177e:	9f 93       	push	r25
    1780:	8f 93       	push	r24
    1782:	8b ea       	ldi	r24, 0xAB	; 171
    1784:	94 e0       	ldi	r25, 0x04	; 4
    1786:	9f 93       	push	r25
    1788:	8f 93       	push	r24
    178a:	0e 94 65 0e 	call	0x1cca	; 0x1cca <sprintf>
    178e:	6b ea       	ldi	r22, 0xAB	; 171
    1790:	74 e0       	ldi	r23, 0x04	; 4
    1792:	88 81       	ld	r24, Y
    1794:	99 81       	ldd	r25, Y+1	; 0x01
    1796:	0e 94 21 0c 	call	0x1842	; 0x1842 <_ZN6serial4sendEPc>
    179a:	8d b7       	in	r24, 0x3d	; 61
    179c:	9e b7       	in	r25, 0x3e	; 62
    179e:	42 96       	adiw	r24, 0x12	; 18
    17a0:	0f b6       	in	r0, 0x3f	; 63
    17a2:	f8 94       	cli
    17a4:	9e bf       	out	0x3e, r25	; 62
    17a6:	0f be       	out	0x3f, r0	; 63
    17a8:	8d bf       	out	0x3d, r24	; 61
			(temp / 100), (temp % 100),
			(temp_f / 100), (temp_f % 100));
	}
	runs++;
    17aa:	80 91 aa 05 	lds	r24, 0x05AA
    17ae:	8f 5f       	subi	r24, 0xFF	; 255
    17b0:	80 93 aa 05 	sts	0x05AA, r24
    17b4:	df 91       	pop	r29
    17b6:	cf 91       	pop	r28
    17b8:	1f 91       	pop	r17
    17ba:	0f 91       	pop	r16
    17bc:	08 95       	ret

000017be <_ZN6serial4initEv>:
 * 
 * Return:		bool - the status of the operation (true  = success,
 *													false = failure)
 ****************************************************************************/
void serial::init (void)
{
    17be:	fc 01       	movw	r30, r24
	/* calculate ubrr for desired baud rate */
	uint32_t ubrr = ((clk_speed / 16UL) / baud_rate) - 1;
    17c0:	82 81       	ldd	r24, Z+2	; 0x02
    17c2:	93 81       	ldd	r25, Z+3	; 0x03
    17c4:	a4 81       	ldd	r26, Z+4	; 0x04
    17c6:	b5 81       	ldd	r27, Z+5	; 0x05
    17c8:	bc 01       	movw	r22, r24
    17ca:	cd 01       	movw	r24, r26
    17cc:	68 94       	set
    17ce:	13 f8       	bld	r1, 3
    17d0:	96 95       	lsr	r25
    17d2:	87 95       	ror	r24
    17d4:	77 95       	ror	r23
    17d6:	67 95       	ror	r22
    17d8:	16 94       	lsr	r1
    17da:	d1 f7       	brne	.-12     	; 0x17d0 <_ZN6serial4initEv+0x12>
    17dc:	20 81       	ld	r18, Z
    17de:	31 81       	ldd	r19, Z+1	; 0x01
    17e0:	40 e0       	ldi	r20, 0x00	; 0
    17e2:	50 e0       	ldi	r21, 0x00	; 0
    17e4:	0e 94 69 0c 	call	0x18d2	; 0x18d2 <__udivmodsi4>
    17e8:	ba 01       	movw	r22, r20
    17ea:	a9 01       	movw	r20, r18
    17ec:	41 50       	subi	r20, 0x01	; 1
    17ee:	51 09       	sbc	r21, r1
    17f0:	61 09       	sbc	r22, r1
    17f2:	71 09       	sbc	r23, r1
	UBRR0H = (uint8_t)(ubrr >> 8);
    17f4:	bb 27       	eor	r27, r27
    17f6:	a7 2f       	mov	r26, r23
    17f8:	96 2f       	mov	r25, r22
    17fa:	85 2f       	mov	r24, r21
    17fc:	80 93 c5 00 	sts	0x00C5, r24
	UBRR0L = (uint8_t)ubrr;
    1800:	40 93 c4 00 	sts	0x00C4, r20
	
	/* Enable receiver and transmitter */
	UCSR0B = ((1 << RXEN0) | (1 << TXEN0));
    1804:	88 e1       	ldi	r24, 0x18	; 24
    1806:	80 93 c1 00 	sts	0x00C1, r24
	
	/* Set frame format: 8data, 1stop bit */
	UCSR0C = ((1 << USBS0) | (3 << UCSZ00));
    180a:	8e e0       	ldi	r24, 0x0E	; 14
    180c:	80 93 c2 00 	sts	0x00C2, r24
	UCSR0A &= ~(1 << U2X0);
    1810:	e0 ec       	ldi	r30, 0xC0	; 192
    1812:	f0 e0       	ldi	r31, 0x00	; 0
    1814:	80 81       	ld	r24, Z
    1816:	8d 7f       	andi	r24, 0xFD	; 253
    1818:	80 83       	st	Z, r24
    181a:	08 95       	ret

0000181c <_ZN6serialC1Ejm>:
 * Parameters:	baud - the baud rate to establish
 *				clk  - the clock speed of the device
 ****************************************************************************/
serial::serial (uint16_t baud, uint32_t clk)
{
	baud_rate = baud;		// store a local copy of baud rate
    181c:	fc 01       	movw	r30, r24
    181e:	71 83       	std	Z+1, r23	; 0x01
    1820:	60 83       	st	Z, r22
	clk_speed = clk;		// store a local copy of clock speed of device
    1822:	22 83       	std	Z+2, r18	; 0x02
    1824:	33 83       	std	Z+3, r19	; 0x03
    1826:	44 83       	std	Z+4, r20	; 0x04
    1828:	55 83       	std	Z+5, r21	; 0x05
	
	init();
    182a:	0e 94 df 0b 	call	0x17be	; 0x17be <_ZN6serial4initEv>
    182e:	08 95       	ret

00001830 <_ZN6serial4sendEh>:
bool serial::send (uint8_t data)
{
	uint16_t cnt = 0;
	
	/* Wait for empty transmit buffer */
	while (!(UCSR0A & (1 << UDRE0)))// && cnt < SERIAL_TIMEOUT)
    1830:	e0 ec       	ldi	r30, 0xC0	; 192
    1832:	f0 e0       	ldi	r31, 0x00	; 0
    1834:	80 81       	ld	r24, Z
    1836:	85 ff       	sbrs	r24, 5
    1838:	fd cf       	rjmp	.-6      	; 0x1834 <_ZN6serial4sendEh+0x4>
		return false;
	}
	*/
	
	/* Put data into buffer, sends the data */
	UDR0 = data;
    183a:	60 93 c6 00 	sts	0x00C6, r22
	
	return true;
}
    183e:	81 e0       	ldi	r24, 0x01	; 1
    1840:	08 95       	ret

00001842 <_ZN6serial4sendEPc>:
 * 
 * Parameters:	str - the string of data to be sent, maximum 255 bytes
 * Return:		uint8_t - the total number of characters successfully sent
 ****************************************************************************/
uint8_t serial::send (char *str)
{
    1842:	ef 92       	push	r14
    1844:	ff 92       	push	r15
    1846:	0f 93       	push	r16
    1848:	1f 93       	push	r17
    184a:	cf 93       	push	r28
    184c:	fb 01       	movw	r30, r22
	uint8_t sent = 0;
	
	while (*str && sent < SERIAL_MAX_SEND)
    184e:	60 81       	ld	r22, Z
    1850:	66 23       	and	r22, r22
    1852:	99 f0       	breq	.+38     	; 0x187a <_ZN6serial4sendEPc+0x38>
    1854:	8f 01       	movw	r16, r30
    1856:	7c 01       	movw	r14, r24
    1858:	0f 5f       	subi	r16, 0xFF	; 255
    185a:	1f 4f       	sbci	r17, 0xFF	; 255
    185c:	c0 e0       	ldi	r28, 0x00	; 0
	{
		if (send(*str++))
    185e:	c7 01       	movw	r24, r14
    1860:	0e 94 18 0c 	call	0x1830	; 0x1830 <_ZN6serial4sendEh>
    1864:	88 23       	and	r24, r24
    1866:	51 f0       	breq	.+20     	; 0x187c <_ZN6serial4sendEPc+0x3a>
		{
			sent++;
    1868:	cf 5f       	subi	r28, 0xFF	; 255
 ****************************************************************************/
uint8_t serial::send (char *str)
{
	uint8_t sent = 0;
	
	while (*str && sent < SERIAL_MAX_SEND)
    186a:	f8 01       	movw	r30, r16
    186c:	61 91       	ld	r22, Z+
    186e:	8f 01       	movw	r16, r30
    1870:	66 23       	and	r22, r22
    1872:	21 f0       	breq	.+8      	; 0x187c <_ZN6serial4sendEPc+0x3a>
    1874:	cf 3f       	cpi	r28, 0xFF	; 255
    1876:	99 f7       	brne	.-26     	; 0x185e <_ZN6serial4sendEPc+0x1c>
    1878:	01 c0       	rjmp	.+2      	; 0x187c <_ZN6serial4sendEPc+0x3a>
 * Parameters:	str - the string of data to be sent, maximum 255 bytes
 * Return:		uint8_t - the total number of characters successfully sent
 ****************************************************************************/
uint8_t serial::send (char *str)
{
	uint8_t sent = 0;
    187a:	c0 e0       	ldi	r28, 0x00	; 0
			break;
		}
	}
	
	return sent;
}
    187c:	8c 2f       	mov	r24, r28
    187e:	cf 91       	pop	r28
    1880:	1f 91       	pop	r17
    1882:	0f 91       	pop	r16
    1884:	ff 90       	pop	r15
    1886:	ef 90       	pop	r14
    1888:	08 95       	ret

0000188a <__mulsi3>:
    188a:	db 01       	movw	r26, r22
    188c:	8f 93       	push	r24
    188e:	9f 93       	push	r25
    1890:	0e 94 aa 0c 	call	0x1954	; 0x1954 <__muluhisi3>
    1894:	bf 91       	pop	r27
    1896:	af 91       	pop	r26
    1898:	a2 9f       	mul	r26, r18
    189a:	80 0d       	add	r24, r0
    189c:	91 1d       	adc	r25, r1
    189e:	a3 9f       	mul	r26, r19
    18a0:	90 0d       	add	r25, r0
    18a2:	b2 9f       	mul	r27, r18
    18a4:	90 0d       	add	r25, r0
    18a6:	11 24       	eor	r1, r1
    18a8:	08 95       	ret

000018aa <__divmodhi4>:
    18aa:	97 fb       	bst	r25, 7
    18ac:	07 2e       	mov	r0, r23
    18ae:	16 f4       	brtc	.+4      	; 0x18b4 <__divmodhi4+0xa>
    18b0:	00 94       	com	r0
    18b2:	07 d0       	rcall	.+14     	; 0x18c2 <__divmodhi4_neg1>
    18b4:	77 fd       	sbrc	r23, 7
    18b6:	09 d0       	rcall	.+18     	; 0x18ca <__divmodhi4_neg2>
    18b8:	0e 94 42 0e 	call	0x1c84	; 0x1c84 <__udivmodhi4>
    18bc:	07 fc       	sbrc	r0, 7
    18be:	05 d0       	rcall	.+10     	; 0x18ca <__divmodhi4_neg2>
    18c0:	3e f4       	brtc	.+14     	; 0x18d0 <__divmodhi4_exit>

000018c2 <__divmodhi4_neg1>:
    18c2:	90 95       	com	r25
    18c4:	81 95       	neg	r24
    18c6:	9f 4f       	sbci	r25, 0xFF	; 255
    18c8:	08 95       	ret

000018ca <__divmodhi4_neg2>:
    18ca:	70 95       	com	r23
    18cc:	61 95       	neg	r22
    18ce:	7f 4f       	sbci	r23, 0xFF	; 255

000018d0 <__divmodhi4_exit>:
    18d0:	08 95       	ret

000018d2 <__udivmodsi4>:
    18d2:	a1 e2       	ldi	r26, 0x21	; 33
    18d4:	1a 2e       	mov	r1, r26
    18d6:	aa 1b       	sub	r26, r26
    18d8:	bb 1b       	sub	r27, r27
    18da:	fd 01       	movw	r30, r26
    18dc:	0d c0       	rjmp	.+26     	; 0x18f8 <__udivmodsi4_ep>

000018de <__udivmodsi4_loop>:
    18de:	aa 1f       	adc	r26, r26
    18e0:	bb 1f       	adc	r27, r27
    18e2:	ee 1f       	adc	r30, r30
    18e4:	ff 1f       	adc	r31, r31
    18e6:	a2 17       	cp	r26, r18
    18e8:	b3 07       	cpc	r27, r19
    18ea:	e4 07       	cpc	r30, r20
    18ec:	f5 07       	cpc	r31, r21
    18ee:	20 f0       	brcs	.+8      	; 0x18f8 <__udivmodsi4_ep>
    18f0:	a2 1b       	sub	r26, r18
    18f2:	b3 0b       	sbc	r27, r19
    18f4:	e4 0b       	sbc	r30, r20
    18f6:	f5 0b       	sbc	r31, r21

000018f8 <__udivmodsi4_ep>:
    18f8:	66 1f       	adc	r22, r22
    18fa:	77 1f       	adc	r23, r23
    18fc:	88 1f       	adc	r24, r24
    18fe:	99 1f       	adc	r25, r25
    1900:	1a 94       	dec	r1
    1902:	69 f7       	brne	.-38     	; 0x18de <__udivmodsi4_loop>
    1904:	60 95       	com	r22
    1906:	70 95       	com	r23
    1908:	80 95       	com	r24
    190a:	90 95       	com	r25
    190c:	9b 01       	movw	r18, r22
    190e:	ac 01       	movw	r20, r24
    1910:	bd 01       	movw	r22, r26
    1912:	cf 01       	movw	r24, r30
    1914:	08 95       	ret

00001916 <__divmodsi4>:
    1916:	05 2e       	mov	r0, r21
    1918:	97 fb       	bst	r25, 7
    191a:	1e f4       	brtc	.+6      	; 0x1922 <__divmodsi4+0xc>
    191c:	00 94       	com	r0
    191e:	0e 94 a2 0c 	call	0x1944	; 0x1944 <__negsi2>
    1922:	57 fd       	sbrc	r21, 7
    1924:	07 d0       	rcall	.+14     	; 0x1934 <__divmodsi4_neg2>
    1926:	0e 94 69 0c 	call	0x18d2	; 0x18d2 <__udivmodsi4>
    192a:	07 fc       	sbrc	r0, 7
    192c:	03 d0       	rcall	.+6      	; 0x1934 <__divmodsi4_neg2>
    192e:	4e f4       	brtc	.+18     	; 0x1942 <__divmodsi4_exit>
    1930:	0c 94 a2 0c 	jmp	0x1944	; 0x1944 <__negsi2>

00001934 <__divmodsi4_neg2>:
    1934:	50 95       	com	r21
    1936:	40 95       	com	r20
    1938:	30 95       	com	r19
    193a:	21 95       	neg	r18
    193c:	3f 4f       	sbci	r19, 0xFF	; 255
    193e:	4f 4f       	sbci	r20, 0xFF	; 255
    1940:	5f 4f       	sbci	r21, 0xFF	; 255

00001942 <__divmodsi4_exit>:
    1942:	08 95       	ret

00001944 <__negsi2>:
    1944:	90 95       	com	r25
    1946:	80 95       	com	r24
    1948:	70 95       	com	r23
    194a:	61 95       	neg	r22
    194c:	7f 4f       	sbci	r23, 0xFF	; 255
    194e:	8f 4f       	sbci	r24, 0xFF	; 255
    1950:	9f 4f       	sbci	r25, 0xFF	; 255
    1952:	08 95       	ret

00001954 <__muluhisi3>:
    1954:	0e 94 56 0e 	call	0x1cac	; 0x1cac <__umulhisi3>
    1958:	a5 9f       	mul	r26, r21
    195a:	90 0d       	add	r25, r0
    195c:	b4 9f       	mul	r27, r20
    195e:	90 0d       	add	r25, r0
    1960:	a4 9f       	mul	r26, r20
    1962:	80 0d       	add	r24, r0
    1964:	91 1d       	adc	r25, r1
    1966:	11 24       	eor	r1, r1
    1968:	08 95       	ret

0000196a <__mulshisi3>:
    196a:	b7 ff       	sbrs	r27, 7
    196c:	0c 94 aa 0c 	jmp	0x1954	; 0x1954 <__muluhisi3>

00001970 <__mulohisi3>:
    1970:	0e 94 aa 0c 	call	0x1954	; 0x1954 <__muluhisi3>
    1974:	82 1b       	sub	r24, r18
    1976:	93 0b       	sbc	r25, r19
    1978:	08 95       	ret

0000197a <__muldi3>:
    197a:	df 93       	push	r29
    197c:	cf 93       	push	r28
    197e:	1f 93       	push	r17
    1980:	0f 93       	push	r16
    1982:	9a 9d       	mul	r25, r10
    1984:	f0 2d       	mov	r31, r0
    1986:	21 9f       	mul	r18, r17
    1988:	f0 0d       	add	r31, r0
    198a:	8b 9d       	mul	r24, r11
    198c:	f0 0d       	add	r31, r0
    198e:	8a 9d       	mul	r24, r10
    1990:	e0 2d       	mov	r30, r0
    1992:	f1 0d       	add	r31, r1
    1994:	03 9f       	mul	r16, r19
    1996:	f0 0d       	add	r31, r0
    1998:	02 9f       	mul	r16, r18
    199a:	e0 0d       	add	r30, r0
    199c:	f1 1d       	adc	r31, r1
    199e:	4e 9d       	mul	r20, r14
    19a0:	e0 0d       	add	r30, r0
    19a2:	f1 1d       	adc	r31, r1
    19a4:	5e 9d       	mul	r21, r14
    19a6:	f0 0d       	add	r31, r0
    19a8:	4f 9d       	mul	r20, r15
    19aa:	f0 0d       	add	r31, r0
    19ac:	7f 93       	push	r23
    19ae:	6f 93       	push	r22
    19b0:	bf 92       	push	r11
    19b2:	af 92       	push	r10
    19b4:	5f 93       	push	r21
    19b6:	4f 93       	push	r20
    19b8:	d5 01       	movw	r26, r10
    19ba:	0e 94 56 0e 	call	0x1cac	; 0x1cac <__umulhisi3>
    19be:	8b 01       	movw	r16, r22
    19c0:	ac 01       	movw	r20, r24
    19c2:	d7 01       	movw	r26, r14
    19c4:	0e 94 56 0e 	call	0x1cac	; 0x1cac <__umulhisi3>
    19c8:	eb 01       	movw	r28, r22
    19ca:	e8 0f       	add	r30, r24
    19cc:	f9 1f       	adc	r31, r25
    19ce:	d6 01       	movw	r26, r12
    19d0:	0e 94 0d 0d 	call	0x1a1a	; 0x1a1a <__muldi3_6>
    19d4:	2f 91       	pop	r18
    19d6:	3f 91       	pop	r19
    19d8:	d6 01       	movw	r26, r12
    19da:	0e 94 56 0e 	call	0x1cac	; 0x1cac <__umulhisi3>
    19de:	c6 0f       	add	r28, r22
    19e0:	d7 1f       	adc	r29, r23
    19e2:	e8 1f       	adc	r30, r24
    19e4:	f9 1f       	adc	r31, r25
    19e6:	af 91       	pop	r26
    19e8:	bf 91       	pop	r27
    19ea:	0e 94 0d 0d 	call	0x1a1a	; 0x1a1a <__muldi3_6>
    19ee:	2f 91       	pop	r18
    19f0:	3f 91       	pop	r19
    19f2:	0e 94 56 0e 	call	0x1cac	; 0x1cac <__umulhisi3>
    19f6:	c6 0f       	add	r28, r22
    19f8:	d7 1f       	adc	r29, r23
    19fa:	e8 1f       	adc	r30, r24
    19fc:	f9 1f       	adc	r31, r25
    19fe:	d6 01       	movw	r26, r12
    1a00:	0e 94 56 0e 	call	0x1cac	; 0x1cac <__umulhisi3>
    1a04:	e6 0f       	add	r30, r22
    1a06:	f7 1f       	adc	r31, r23
    1a08:	98 01       	movw	r18, r16
    1a0a:	be 01       	movw	r22, r28
    1a0c:	cf 01       	movw	r24, r30
    1a0e:	11 24       	eor	r1, r1
    1a10:	0f 91       	pop	r16
    1a12:	1f 91       	pop	r17
    1a14:	cf 91       	pop	r28
    1a16:	df 91       	pop	r29
    1a18:	08 95       	ret

00001a1a <__muldi3_6>:
    1a1a:	0e 94 56 0e 	call	0x1cac	; 0x1cac <__umulhisi3>
    1a1e:	46 0f       	add	r20, r22
    1a20:	57 1f       	adc	r21, r23
    1a22:	c8 1f       	adc	r28, r24
    1a24:	d9 1f       	adc	r29, r25
    1a26:	08 f4       	brcc	.+2      	; 0x1a2a <__muldi3_6+0x10>
    1a28:	31 96       	adiw	r30, 0x01	; 1
    1a2a:	08 95       	ret

00001a2c <__moddi3>:
    1a2c:	68 94       	set
    1a2e:	01 c0       	rjmp	.+2      	; 0x1a32 <__divdi3_moddi3>

00001a30 <__divdi3>:
    1a30:	e8 94       	clt

00001a32 <__divdi3_moddi3>:
    1a32:	f9 2f       	mov	r31, r25
    1a34:	f1 2b       	or	r31, r17
    1a36:	12 f0       	brmi	.+4      	; 0x1a3c <__divdi3_moddi3+0xa>
    1a38:	0c 94 4a 0d 	jmp	0x1a94	; 0x1a94 <__udivdi3_umoddi3>
    1a3c:	a0 e0       	ldi	r26, 0x00	; 0
    1a3e:	b0 e0       	ldi	r27, 0x00	; 0
    1a40:	e4 e2       	ldi	r30, 0x24	; 36
    1a42:	fd e0       	ldi	r31, 0x0D	; 13
    1a44:	0c 94 bc 0d 	jmp	0x1b78	; 0x1b78 <__prologue_saves__+0xc>
    1a48:	09 2e       	mov	r0, r25
    1a4a:	05 94       	asr	r0
    1a4c:	22 f4       	brpl	.+8      	; 0x1a56 <__divdi3_moddi3+0x24>
    1a4e:	0e 94 a6 0d 	call	0x1b4c	; 0x1b4c <__negdi2>
    1a52:	11 23       	and	r17, r17
    1a54:	92 f4       	brpl	.+36     	; 0x1a7a <__divdi3_moddi3+0x48>
    1a56:	f0 e8       	ldi	r31, 0x80	; 128
    1a58:	0f 26       	eor	r0, r31
    1a5a:	ff ef       	ldi	r31, 0xFF	; 255
    1a5c:	e0 94       	com	r14
    1a5e:	f0 94       	com	r15
    1a60:	00 95       	com	r16
    1a62:	10 95       	com	r17
    1a64:	b0 94       	com	r11
    1a66:	c0 94       	com	r12
    1a68:	d0 94       	com	r13
    1a6a:	a1 94       	neg	r10
    1a6c:	bf 0a       	sbc	r11, r31
    1a6e:	cf 0a       	sbc	r12, r31
    1a70:	df 0a       	sbc	r13, r31
    1a72:	ef 0a       	sbc	r14, r31
    1a74:	ff 0a       	sbc	r15, r31
    1a76:	0f 0b       	sbc	r16, r31
    1a78:	1f 0b       	sbc	r17, r31
    1a7a:	0e 94 55 0d 	call	0x1aaa	; 0x1aaa <__udivmod64>
    1a7e:	07 fc       	sbrc	r0, 7
    1a80:	0e 94 a6 0d 	call	0x1b4c	; 0x1b4c <__negdi2>
    1a84:	cd b7       	in	r28, 0x3d	; 61
    1a86:	de b7       	in	r29, 0x3e	; 62
    1a88:	ec e0       	ldi	r30, 0x0C	; 12
    1a8a:	0c 94 d8 0d 	jmp	0x1bb0	; 0x1bb0 <__epilogue_restores__+0xc>

00001a8e <__umoddi3>:
    1a8e:	68 94       	set
    1a90:	01 c0       	rjmp	.+2      	; 0x1a94 <__udivdi3_umoddi3>

00001a92 <__udivdi3>:
    1a92:	e8 94       	clt

00001a94 <__udivdi3_umoddi3>:
    1a94:	8f 92       	push	r8
    1a96:	9f 92       	push	r9
    1a98:	cf 93       	push	r28
    1a9a:	df 93       	push	r29
    1a9c:	0e 94 55 0d 	call	0x1aaa	; 0x1aaa <__udivmod64>
    1aa0:	df 91       	pop	r29
    1aa2:	cf 91       	pop	r28
    1aa4:	9f 90       	pop	r9
    1aa6:	8f 90       	pop	r8
    1aa8:	08 95       	ret

00001aaa <__udivmod64>:
    1aaa:	88 24       	eor	r8, r8
    1aac:	99 24       	eor	r9, r9
    1aae:	f4 01       	movw	r30, r8
    1ab0:	e4 01       	movw	r28, r8
    1ab2:	b0 e4       	ldi	r27, 0x40	; 64
    1ab4:	9f 93       	push	r25
    1ab6:	aa 27       	eor	r26, r26
    1ab8:	9a 15       	cp	r25, r10
    1aba:	8b 04       	cpc	r8, r11
    1abc:	9c 04       	cpc	r9, r12
    1abe:	ed 05       	cpc	r30, r13
    1ac0:	fe 05       	cpc	r31, r14
    1ac2:	cf 05       	cpc	r28, r15
    1ac4:	d0 07       	cpc	r29, r16
    1ac6:	a1 07       	cpc	r26, r17
    1ac8:	98 f4       	brcc	.+38     	; 0x1af0 <__udivmod64+0x46>
    1aca:	ad 2f       	mov	r26, r29
    1acc:	dc 2f       	mov	r29, r28
    1ace:	cf 2f       	mov	r28, r31
    1ad0:	fe 2f       	mov	r31, r30
    1ad2:	e9 2d       	mov	r30, r9
    1ad4:	98 2c       	mov	r9, r8
    1ad6:	89 2e       	mov	r8, r25
    1ad8:	98 2f       	mov	r25, r24
    1ada:	87 2f       	mov	r24, r23
    1adc:	76 2f       	mov	r23, r22
    1ade:	65 2f       	mov	r22, r21
    1ae0:	54 2f       	mov	r21, r20
    1ae2:	43 2f       	mov	r20, r19
    1ae4:	32 2f       	mov	r19, r18
    1ae6:	22 27       	eor	r18, r18
    1ae8:	b8 50       	subi	r27, 0x08	; 8
    1aea:	31 f7       	brne	.-52     	; 0x1ab8 <__udivmod64+0xe>
    1aec:	bf 91       	pop	r27
    1aee:	27 c0       	rjmp	.+78     	; 0x1b3e <__udivmod64+0x94>
    1af0:	1b 2e       	mov	r1, r27
    1af2:	bf 91       	pop	r27
    1af4:	bb 27       	eor	r27, r27
    1af6:	22 0f       	add	r18, r18
    1af8:	33 1f       	adc	r19, r19
    1afa:	44 1f       	adc	r20, r20
    1afc:	55 1f       	adc	r21, r21
    1afe:	66 1f       	adc	r22, r22
    1b00:	77 1f       	adc	r23, r23
    1b02:	88 1f       	adc	r24, r24
    1b04:	99 1f       	adc	r25, r25
    1b06:	88 1c       	adc	r8, r8
    1b08:	99 1c       	adc	r9, r9
    1b0a:	ee 1f       	adc	r30, r30
    1b0c:	ff 1f       	adc	r31, r31
    1b0e:	cc 1f       	adc	r28, r28
    1b10:	dd 1f       	adc	r29, r29
    1b12:	aa 1f       	adc	r26, r26
    1b14:	bb 1f       	adc	r27, r27
    1b16:	8a 14       	cp	r8, r10
    1b18:	9b 04       	cpc	r9, r11
    1b1a:	ec 05       	cpc	r30, r12
    1b1c:	fd 05       	cpc	r31, r13
    1b1e:	ce 05       	cpc	r28, r14
    1b20:	df 05       	cpc	r29, r15
    1b22:	a0 07       	cpc	r26, r16
    1b24:	b1 07       	cpc	r27, r17
    1b26:	48 f0       	brcs	.+18     	; 0x1b3a <__udivmod64+0x90>
    1b28:	8a 18       	sub	r8, r10
    1b2a:	9b 08       	sbc	r9, r11
    1b2c:	ec 09       	sbc	r30, r12
    1b2e:	fd 09       	sbc	r31, r13
    1b30:	ce 09       	sbc	r28, r14
    1b32:	df 09       	sbc	r29, r15
    1b34:	a0 0b       	sbc	r26, r16
    1b36:	b1 0b       	sbc	r27, r17
    1b38:	21 60       	ori	r18, 0x01	; 1
    1b3a:	1a 94       	dec	r1
    1b3c:	e1 f6       	brne	.-72     	; 0x1af6 <__udivmod64+0x4c>
    1b3e:	2e f4       	brtc	.+10     	; 0x1b4a <__udivmod64+0xa0>
    1b40:	94 01       	movw	r18, r8
    1b42:	af 01       	movw	r20, r30
    1b44:	be 01       	movw	r22, r28
    1b46:	cd 01       	movw	r24, r26
    1b48:	00 0c       	add	r0, r0
    1b4a:	08 95       	ret

00001b4c <__negdi2>:
    1b4c:	60 95       	com	r22
    1b4e:	70 95       	com	r23
    1b50:	80 95       	com	r24
    1b52:	90 95       	com	r25
    1b54:	30 95       	com	r19
    1b56:	40 95       	com	r20
    1b58:	50 95       	com	r21
    1b5a:	21 95       	neg	r18
    1b5c:	3f 4f       	sbci	r19, 0xFF	; 255
    1b5e:	4f 4f       	sbci	r20, 0xFF	; 255
    1b60:	5f 4f       	sbci	r21, 0xFF	; 255
    1b62:	6f 4f       	sbci	r22, 0xFF	; 255
    1b64:	7f 4f       	sbci	r23, 0xFF	; 255
    1b66:	8f 4f       	sbci	r24, 0xFF	; 255
    1b68:	9f 4f       	sbci	r25, 0xFF	; 255
    1b6a:	08 95       	ret

00001b6c <__prologue_saves__>:
    1b6c:	2f 92       	push	r2
    1b6e:	3f 92       	push	r3
    1b70:	4f 92       	push	r4
    1b72:	5f 92       	push	r5
    1b74:	6f 92       	push	r6
    1b76:	7f 92       	push	r7
    1b78:	8f 92       	push	r8
    1b7a:	9f 92       	push	r9
    1b7c:	af 92       	push	r10
    1b7e:	bf 92       	push	r11
    1b80:	cf 92       	push	r12
    1b82:	df 92       	push	r13
    1b84:	ef 92       	push	r14
    1b86:	ff 92       	push	r15
    1b88:	0f 93       	push	r16
    1b8a:	1f 93       	push	r17
    1b8c:	cf 93       	push	r28
    1b8e:	df 93       	push	r29
    1b90:	cd b7       	in	r28, 0x3d	; 61
    1b92:	de b7       	in	r29, 0x3e	; 62
    1b94:	ca 1b       	sub	r28, r26
    1b96:	db 0b       	sbc	r29, r27
    1b98:	0f b6       	in	r0, 0x3f	; 63
    1b9a:	f8 94       	cli
    1b9c:	de bf       	out	0x3e, r29	; 62
    1b9e:	0f be       	out	0x3f, r0	; 63
    1ba0:	cd bf       	out	0x3d, r28	; 61
    1ba2:	09 94       	ijmp

00001ba4 <__epilogue_restores__>:
    1ba4:	2a 88       	ldd	r2, Y+18	; 0x12
    1ba6:	39 88       	ldd	r3, Y+17	; 0x11
    1ba8:	48 88       	ldd	r4, Y+16	; 0x10
    1baa:	5f 84       	ldd	r5, Y+15	; 0x0f
    1bac:	6e 84       	ldd	r6, Y+14	; 0x0e
    1bae:	7d 84       	ldd	r7, Y+13	; 0x0d
    1bb0:	8c 84       	ldd	r8, Y+12	; 0x0c
    1bb2:	9b 84       	ldd	r9, Y+11	; 0x0b
    1bb4:	aa 84       	ldd	r10, Y+10	; 0x0a
    1bb6:	b9 84       	ldd	r11, Y+9	; 0x09
    1bb8:	c8 84       	ldd	r12, Y+8	; 0x08
    1bba:	df 80       	ldd	r13, Y+7	; 0x07
    1bbc:	ee 80       	ldd	r14, Y+6	; 0x06
    1bbe:	fd 80       	ldd	r15, Y+5	; 0x05
    1bc0:	0c 81       	ldd	r16, Y+4	; 0x04
    1bc2:	1b 81       	ldd	r17, Y+3	; 0x03
    1bc4:	aa 81       	ldd	r26, Y+2	; 0x02
    1bc6:	b9 81       	ldd	r27, Y+1	; 0x01
    1bc8:	ce 0f       	add	r28, r30
    1bca:	d1 1d       	adc	r29, r1
    1bcc:	0f b6       	in	r0, 0x3f	; 63
    1bce:	f8 94       	cli
    1bd0:	de bf       	out	0x3e, r29	; 62
    1bd2:	0f be       	out	0x3f, r0	; 63
    1bd4:	cd bf       	out	0x3d, r28	; 61
    1bd6:	ed 01       	movw	r28, r26
    1bd8:	08 95       	ret

00001bda <__ashldi3>:
    1bda:	0f 93       	push	r16
    1bdc:	08 30       	cpi	r16, 0x08	; 8
    1bde:	90 f0       	brcs	.+36     	; 0x1c04 <__ashldi3+0x2a>
    1be0:	98 2f       	mov	r25, r24
    1be2:	87 2f       	mov	r24, r23
    1be4:	76 2f       	mov	r23, r22
    1be6:	65 2f       	mov	r22, r21
    1be8:	54 2f       	mov	r21, r20
    1bea:	43 2f       	mov	r20, r19
    1bec:	32 2f       	mov	r19, r18
    1bee:	22 27       	eor	r18, r18
    1bf0:	08 50       	subi	r16, 0x08	; 8
    1bf2:	f4 cf       	rjmp	.-24     	; 0x1bdc <__ashldi3+0x2>
    1bf4:	22 0f       	add	r18, r18
    1bf6:	33 1f       	adc	r19, r19
    1bf8:	44 1f       	adc	r20, r20
    1bfa:	55 1f       	adc	r21, r21
    1bfc:	66 1f       	adc	r22, r22
    1bfe:	77 1f       	adc	r23, r23
    1c00:	88 1f       	adc	r24, r24
    1c02:	99 1f       	adc	r25, r25
    1c04:	0a 95       	dec	r16
    1c06:	b2 f7       	brpl	.-20     	; 0x1bf4 <__ashldi3+0x1a>
    1c08:	0f 91       	pop	r16
    1c0a:	08 95       	ret

00001c0c <__ashrdi3>:
    1c0c:	97 fb       	bst	r25, 7
    1c0e:	10 f8       	bld	r1, 0

00001c10 <__lshrdi3>:
    1c10:	16 94       	lsr	r1
    1c12:	00 08       	sbc	r0, r0
    1c14:	0f 93       	push	r16
    1c16:	08 30       	cpi	r16, 0x08	; 8
    1c18:	98 f0       	brcs	.+38     	; 0x1c40 <__lshrdi3+0x30>
    1c1a:	08 50       	subi	r16, 0x08	; 8
    1c1c:	23 2f       	mov	r18, r19
    1c1e:	34 2f       	mov	r19, r20
    1c20:	45 2f       	mov	r20, r21
    1c22:	56 2f       	mov	r21, r22
    1c24:	67 2f       	mov	r22, r23
    1c26:	78 2f       	mov	r23, r24
    1c28:	89 2f       	mov	r24, r25
    1c2a:	90 2d       	mov	r25, r0
    1c2c:	f4 cf       	rjmp	.-24     	; 0x1c16 <__lshrdi3+0x6>
    1c2e:	05 94       	asr	r0
    1c30:	97 95       	ror	r25
    1c32:	87 95       	ror	r24
    1c34:	77 95       	ror	r23
    1c36:	67 95       	ror	r22
    1c38:	57 95       	ror	r21
    1c3a:	47 95       	ror	r20
    1c3c:	37 95       	ror	r19
    1c3e:	27 95       	ror	r18
    1c40:	0a 95       	dec	r16
    1c42:	aa f7       	brpl	.-22     	; 0x1c2e <__lshrdi3+0x1e>
    1c44:	0f 91       	pop	r16
    1c46:	08 95       	ret

00001c48 <__adddi3>:
    1c48:	2a 0d       	add	r18, r10
    1c4a:	3b 1d       	adc	r19, r11
    1c4c:	4c 1d       	adc	r20, r12
    1c4e:	5d 1d       	adc	r21, r13
    1c50:	6e 1d       	adc	r22, r14
    1c52:	7f 1d       	adc	r23, r15
    1c54:	80 1f       	adc	r24, r16
    1c56:	91 1f       	adc	r25, r17
    1c58:	08 95       	ret

00001c5a <__subdi3>:
    1c5a:	2a 19       	sub	r18, r10
    1c5c:	3b 09       	sbc	r19, r11
    1c5e:	4c 09       	sbc	r20, r12
    1c60:	5d 09       	sbc	r21, r13
    1c62:	6e 09       	sbc	r22, r14
    1c64:	7f 09       	sbc	r23, r15
    1c66:	80 0b       	sbc	r24, r16
    1c68:	91 0b       	sbc	r25, r17
    1c6a:	08 95       	ret

00001c6c <__cmpdi2_s8>:
    1c6c:	00 24       	eor	r0, r0
    1c6e:	a7 fd       	sbrc	r26, 7
    1c70:	00 94       	com	r0
    1c72:	2a 17       	cp	r18, r26
    1c74:	30 05       	cpc	r19, r0
    1c76:	40 05       	cpc	r20, r0
    1c78:	50 05       	cpc	r21, r0
    1c7a:	60 05       	cpc	r22, r0
    1c7c:	70 05       	cpc	r23, r0
    1c7e:	80 05       	cpc	r24, r0
    1c80:	90 05       	cpc	r25, r0
    1c82:	08 95       	ret

00001c84 <__udivmodhi4>:
    1c84:	aa 1b       	sub	r26, r26
    1c86:	bb 1b       	sub	r27, r27
    1c88:	51 e1       	ldi	r21, 0x11	; 17
    1c8a:	07 c0       	rjmp	.+14     	; 0x1c9a <__udivmodhi4_ep>

00001c8c <__udivmodhi4_loop>:
    1c8c:	aa 1f       	adc	r26, r26
    1c8e:	bb 1f       	adc	r27, r27
    1c90:	a6 17       	cp	r26, r22
    1c92:	b7 07       	cpc	r27, r23
    1c94:	10 f0       	brcs	.+4      	; 0x1c9a <__udivmodhi4_ep>
    1c96:	a6 1b       	sub	r26, r22
    1c98:	b7 0b       	sbc	r27, r23

00001c9a <__udivmodhi4_ep>:
    1c9a:	88 1f       	adc	r24, r24
    1c9c:	99 1f       	adc	r25, r25
    1c9e:	5a 95       	dec	r21
    1ca0:	a9 f7       	brne	.-22     	; 0x1c8c <__udivmodhi4_loop>
    1ca2:	80 95       	com	r24
    1ca4:	90 95       	com	r25
    1ca6:	bc 01       	movw	r22, r24
    1ca8:	cd 01       	movw	r24, r26
    1caa:	08 95       	ret

00001cac <__umulhisi3>:
    1cac:	a2 9f       	mul	r26, r18
    1cae:	b0 01       	movw	r22, r0
    1cb0:	b3 9f       	mul	r27, r19
    1cb2:	c0 01       	movw	r24, r0
    1cb4:	a3 9f       	mul	r26, r19
    1cb6:	70 0d       	add	r23, r0
    1cb8:	81 1d       	adc	r24, r1
    1cba:	11 24       	eor	r1, r1
    1cbc:	91 1d       	adc	r25, r1
    1cbe:	b2 9f       	mul	r27, r18
    1cc0:	70 0d       	add	r23, r0
    1cc2:	81 1d       	adc	r24, r1
    1cc4:	11 24       	eor	r1, r1
    1cc6:	91 1d       	adc	r25, r1
    1cc8:	08 95       	ret

00001cca <sprintf>:
    1cca:	ae e0       	ldi	r26, 0x0E	; 14
    1ccc:	b0 e0       	ldi	r27, 0x00	; 0
    1cce:	eb e6       	ldi	r30, 0x6B	; 107
    1cd0:	fe e0       	ldi	r31, 0x0E	; 14
    1cd2:	0c 94 c4 0d 	jmp	0x1b88	; 0x1b88 <__prologue_saves__+0x1c>
    1cd6:	0d 89       	ldd	r16, Y+21	; 0x15
    1cd8:	1e 89       	ldd	r17, Y+22	; 0x16
    1cda:	86 e0       	ldi	r24, 0x06	; 6
    1cdc:	8c 83       	std	Y+4, r24	; 0x04
    1cde:	1a 83       	std	Y+2, r17	; 0x02
    1ce0:	09 83       	std	Y+1, r16	; 0x01
    1ce2:	8f ef       	ldi	r24, 0xFF	; 255
    1ce4:	9f e7       	ldi	r25, 0x7F	; 127
    1ce6:	9e 83       	std	Y+6, r25	; 0x06
    1ce8:	8d 83       	std	Y+5, r24	; 0x05
    1cea:	ae 01       	movw	r20, r28
    1cec:	47 5e       	subi	r20, 0xE7	; 231
    1cee:	5f 4f       	sbci	r21, 0xFF	; 255
    1cf0:	6f 89       	ldd	r22, Y+23	; 0x17
    1cf2:	78 8d       	ldd	r23, Y+24	; 0x18
    1cf4:	ce 01       	movw	r24, r28
    1cf6:	01 96       	adiw	r24, 0x01	; 1
    1cf8:	0e 94 88 0e 	call	0x1d10	; 0x1d10 <vfprintf>
    1cfc:	2f 81       	ldd	r18, Y+7	; 0x07
    1cfe:	38 85       	ldd	r19, Y+8	; 0x08
    1d00:	f8 01       	movw	r30, r16
    1d02:	e2 0f       	add	r30, r18
    1d04:	f3 1f       	adc	r31, r19
    1d06:	10 82       	st	Z, r1
    1d08:	2e 96       	adiw	r28, 0x0e	; 14
    1d0a:	e4 e0       	ldi	r30, 0x04	; 4
    1d0c:	0c 94 e0 0d 	jmp	0x1bc0	; 0x1bc0 <__epilogue_restores__+0x1c>

00001d10 <vfprintf>:
    1d10:	ac e0       	ldi	r26, 0x0C	; 12
    1d12:	b0 e0       	ldi	r27, 0x00	; 0
    1d14:	ee e8       	ldi	r30, 0x8E	; 142
    1d16:	fe e0       	ldi	r31, 0x0E	; 14
    1d18:	0c 94 b6 0d 	jmp	0x1b6c	; 0x1b6c <__prologue_saves__>
    1d1c:	7c 01       	movw	r14, r24
    1d1e:	6b 01       	movw	r12, r22
    1d20:	8a 01       	movw	r16, r20
    1d22:	fc 01       	movw	r30, r24
    1d24:	17 82       	std	Z+7, r1	; 0x07
    1d26:	16 82       	std	Z+6, r1	; 0x06
    1d28:	83 81       	ldd	r24, Z+3	; 0x03
    1d2a:	81 ff       	sbrs	r24, 1
    1d2c:	bd c1       	rjmp	.+890    	; 0x20a8 <vfprintf+0x398>
    1d2e:	ce 01       	movw	r24, r28
    1d30:	01 96       	adiw	r24, 0x01	; 1
    1d32:	4c 01       	movw	r8, r24
    1d34:	f7 01       	movw	r30, r14
    1d36:	93 81       	ldd	r25, Z+3	; 0x03
    1d38:	f6 01       	movw	r30, r12
    1d3a:	93 fd       	sbrc	r25, 3
    1d3c:	85 91       	lpm	r24, Z+
    1d3e:	93 ff       	sbrs	r25, 3
    1d40:	81 91       	ld	r24, Z+
    1d42:	6f 01       	movw	r12, r30
    1d44:	88 23       	and	r24, r24
    1d46:	09 f4       	brne	.+2      	; 0x1d4a <vfprintf+0x3a>
    1d48:	ab c1       	rjmp	.+854    	; 0x20a0 <vfprintf+0x390>
    1d4a:	85 32       	cpi	r24, 0x25	; 37
    1d4c:	39 f4       	brne	.+14     	; 0x1d5c <vfprintf+0x4c>
    1d4e:	93 fd       	sbrc	r25, 3
    1d50:	85 91       	lpm	r24, Z+
    1d52:	93 ff       	sbrs	r25, 3
    1d54:	81 91       	ld	r24, Z+
    1d56:	6f 01       	movw	r12, r30
    1d58:	85 32       	cpi	r24, 0x25	; 37
    1d5a:	29 f4       	brne	.+10     	; 0x1d66 <vfprintf+0x56>
    1d5c:	b7 01       	movw	r22, r14
    1d5e:	90 e0       	ldi	r25, 0x00	; 0
    1d60:	0e 94 70 10 	call	0x20e0	; 0x20e0 <fputc>
    1d64:	e7 cf       	rjmp	.-50     	; 0x1d34 <vfprintf+0x24>
    1d66:	51 2c       	mov	r5, r1
    1d68:	31 2c       	mov	r3, r1
    1d6a:	20 e0       	ldi	r18, 0x00	; 0
    1d6c:	20 32       	cpi	r18, 0x20	; 32
    1d6e:	a0 f4       	brcc	.+40     	; 0x1d98 <vfprintf+0x88>
    1d70:	8b 32       	cpi	r24, 0x2B	; 43
    1d72:	69 f0       	breq	.+26     	; 0x1d8e <vfprintf+0x7e>
    1d74:	30 f4       	brcc	.+12     	; 0x1d82 <vfprintf+0x72>
    1d76:	80 32       	cpi	r24, 0x20	; 32
    1d78:	59 f0       	breq	.+22     	; 0x1d90 <vfprintf+0x80>
    1d7a:	83 32       	cpi	r24, 0x23	; 35
    1d7c:	69 f4       	brne	.+26     	; 0x1d98 <vfprintf+0x88>
    1d7e:	20 61       	ori	r18, 0x10	; 16
    1d80:	2c c0       	rjmp	.+88     	; 0x1dda <vfprintf+0xca>
    1d82:	8d 32       	cpi	r24, 0x2D	; 45
    1d84:	39 f0       	breq	.+14     	; 0x1d94 <vfprintf+0x84>
    1d86:	80 33       	cpi	r24, 0x30	; 48
    1d88:	39 f4       	brne	.+14     	; 0x1d98 <vfprintf+0x88>
    1d8a:	21 60       	ori	r18, 0x01	; 1
    1d8c:	26 c0       	rjmp	.+76     	; 0x1dda <vfprintf+0xca>
    1d8e:	22 60       	ori	r18, 0x02	; 2
    1d90:	24 60       	ori	r18, 0x04	; 4
    1d92:	23 c0       	rjmp	.+70     	; 0x1dda <vfprintf+0xca>
    1d94:	28 60       	ori	r18, 0x08	; 8
    1d96:	21 c0       	rjmp	.+66     	; 0x1dda <vfprintf+0xca>
    1d98:	27 fd       	sbrc	r18, 7
    1d9a:	27 c0       	rjmp	.+78     	; 0x1dea <vfprintf+0xda>
    1d9c:	30 ed       	ldi	r19, 0xD0	; 208
    1d9e:	38 0f       	add	r19, r24
    1da0:	3a 30       	cpi	r19, 0x0A	; 10
    1da2:	78 f4       	brcc	.+30     	; 0x1dc2 <vfprintf+0xb2>
    1da4:	26 ff       	sbrs	r18, 6
    1da6:	06 c0       	rjmp	.+12     	; 0x1db4 <vfprintf+0xa4>
    1da8:	fa e0       	ldi	r31, 0x0A	; 10
    1daa:	5f 9e       	mul	r5, r31
    1dac:	30 0d       	add	r19, r0
    1dae:	11 24       	eor	r1, r1
    1db0:	53 2e       	mov	r5, r19
    1db2:	13 c0       	rjmp	.+38     	; 0x1dda <vfprintf+0xca>
    1db4:	8a e0       	ldi	r24, 0x0A	; 10
    1db6:	38 9e       	mul	r3, r24
    1db8:	30 0d       	add	r19, r0
    1dba:	11 24       	eor	r1, r1
    1dbc:	33 2e       	mov	r3, r19
    1dbe:	20 62       	ori	r18, 0x20	; 32
    1dc0:	0c c0       	rjmp	.+24     	; 0x1dda <vfprintf+0xca>
    1dc2:	8e 32       	cpi	r24, 0x2E	; 46
    1dc4:	21 f4       	brne	.+8      	; 0x1dce <vfprintf+0xbe>
    1dc6:	26 fd       	sbrc	r18, 6
    1dc8:	6b c1       	rjmp	.+726    	; 0x20a0 <vfprintf+0x390>
    1dca:	20 64       	ori	r18, 0x40	; 64
    1dcc:	06 c0       	rjmp	.+12     	; 0x1dda <vfprintf+0xca>
    1dce:	8c 36       	cpi	r24, 0x6C	; 108
    1dd0:	11 f4       	brne	.+4      	; 0x1dd6 <vfprintf+0xc6>
    1dd2:	20 68       	ori	r18, 0x80	; 128
    1dd4:	02 c0       	rjmp	.+4      	; 0x1dda <vfprintf+0xca>
    1dd6:	88 36       	cpi	r24, 0x68	; 104
    1dd8:	41 f4       	brne	.+16     	; 0x1dea <vfprintf+0xda>
    1dda:	f6 01       	movw	r30, r12
    1ddc:	93 fd       	sbrc	r25, 3
    1dde:	85 91       	lpm	r24, Z+
    1de0:	93 ff       	sbrs	r25, 3
    1de2:	81 91       	ld	r24, Z+
    1de4:	6f 01       	movw	r12, r30
    1de6:	81 11       	cpse	r24, r1
    1de8:	c1 cf       	rjmp	.-126    	; 0x1d6c <vfprintf+0x5c>
    1dea:	98 2f       	mov	r25, r24
    1dec:	9f 7d       	andi	r25, 0xDF	; 223
    1dee:	95 54       	subi	r25, 0x45	; 69
    1df0:	93 30       	cpi	r25, 0x03	; 3
    1df2:	28 f4       	brcc	.+10     	; 0x1dfe <vfprintf+0xee>
    1df4:	0c 5f       	subi	r16, 0xFC	; 252
    1df6:	1f 4f       	sbci	r17, 0xFF	; 255
    1df8:	ff e3       	ldi	r31, 0x3F	; 63
    1dfa:	f9 83       	std	Y+1, r31	; 0x01
    1dfc:	0d c0       	rjmp	.+26     	; 0x1e18 <vfprintf+0x108>
    1dfe:	83 36       	cpi	r24, 0x63	; 99
    1e00:	31 f0       	breq	.+12     	; 0x1e0e <vfprintf+0xfe>
    1e02:	83 37       	cpi	r24, 0x73	; 115
    1e04:	71 f0       	breq	.+28     	; 0x1e22 <vfprintf+0x112>
    1e06:	83 35       	cpi	r24, 0x53	; 83
    1e08:	09 f0       	breq	.+2      	; 0x1e0c <vfprintf+0xfc>
    1e0a:	5b c0       	rjmp	.+182    	; 0x1ec2 <vfprintf+0x1b2>
    1e0c:	22 c0       	rjmp	.+68     	; 0x1e52 <vfprintf+0x142>
    1e0e:	f8 01       	movw	r30, r16
    1e10:	80 81       	ld	r24, Z
    1e12:	89 83       	std	Y+1, r24	; 0x01
    1e14:	0e 5f       	subi	r16, 0xFE	; 254
    1e16:	1f 4f       	sbci	r17, 0xFF	; 255
    1e18:	44 24       	eor	r4, r4
    1e1a:	43 94       	inc	r4
    1e1c:	51 2c       	mov	r5, r1
    1e1e:	54 01       	movw	r10, r8
    1e20:	15 c0       	rjmp	.+42     	; 0x1e4c <vfprintf+0x13c>
    1e22:	38 01       	movw	r6, r16
    1e24:	f2 e0       	ldi	r31, 0x02	; 2
    1e26:	6f 0e       	add	r6, r31
    1e28:	71 1c       	adc	r7, r1
    1e2a:	f8 01       	movw	r30, r16
    1e2c:	a0 80       	ld	r10, Z
    1e2e:	b1 80       	ldd	r11, Z+1	; 0x01
    1e30:	26 ff       	sbrs	r18, 6
    1e32:	03 c0       	rjmp	.+6      	; 0x1e3a <vfprintf+0x12a>
    1e34:	65 2d       	mov	r22, r5
    1e36:	70 e0       	ldi	r23, 0x00	; 0
    1e38:	02 c0       	rjmp	.+4      	; 0x1e3e <vfprintf+0x12e>
    1e3a:	6f ef       	ldi	r22, 0xFF	; 255
    1e3c:	7f ef       	ldi	r23, 0xFF	; 255
    1e3e:	c5 01       	movw	r24, r10
    1e40:	2c 87       	std	Y+12, r18	; 0x0c
    1e42:	0e 94 65 10 	call	0x20ca	; 0x20ca <strnlen>
    1e46:	2c 01       	movw	r4, r24
    1e48:	83 01       	movw	r16, r6
    1e4a:	2c 85       	ldd	r18, Y+12	; 0x0c
    1e4c:	2f 77       	andi	r18, 0x7F	; 127
    1e4e:	22 2e       	mov	r2, r18
    1e50:	17 c0       	rjmp	.+46     	; 0x1e80 <vfprintf+0x170>
    1e52:	38 01       	movw	r6, r16
    1e54:	f2 e0       	ldi	r31, 0x02	; 2
    1e56:	6f 0e       	add	r6, r31
    1e58:	71 1c       	adc	r7, r1
    1e5a:	f8 01       	movw	r30, r16
    1e5c:	a0 80       	ld	r10, Z
    1e5e:	b1 80       	ldd	r11, Z+1	; 0x01
    1e60:	26 ff       	sbrs	r18, 6
    1e62:	03 c0       	rjmp	.+6      	; 0x1e6a <vfprintf+0x15a>
    1e64:	65 2d       	mov	r22, r5
    1e66:	70 e0       	ldi	r23, 0x00	; 0
    1e68:	02 c0       	rjmp	.+4      	; 0x1e6e <vfprintf+0x15e>
    1e6a:	6f ef       	ldi	r22, 0xFF	; 255
    1e6c:	7f ef       	ldi	r23, 0xFF	; 255
    1e6e:	c5 01       	movw	r24, r10
    1e70:	2c 87       	std	Y+12, r18	; 0x0c
    1e72:	0e 94 5a 10 	call	0x20b4	; 0x20b4 <strnlen_P>
    1e76:	2c 01       	movw	r4, r24
    1e78:	2c 85       	ldd	r18, Y+12	; 0x0c
    1e7a:	20 68       	ori	r18, 0x80	; 128
    1e7c:	22 2e       	mov	r2, r18
    1e7e:	83 01       	movw	r16, r6
    1e80:	23 fc       	sbrc	r2, 3
    1e82:	1b c0       	rjmp	.+54     	; 0x1eba <vfprintf+0x1aa>
    1e84:	83 2d       	mov	r24, r3
    1e86:	90 e0       	ldi	r25, 0x00	; 0
    1e88:	48 16       	cp	r4, r24
    1e8a:	59 06       	cpc	r5, r25
    1e8c:	b0 f4       	brcc	.+44     	; 0x1eba <vfprintf+0x1aa>
    1e8e:	b7 01       	movw	r22, r14
    1e90:	80 e2       	ldi	r24, 0x20	; 32
    1e92:	90 e0       	ldi	r25, 0x00	; 0
    1e94:	0e 94 70 10 	call	0x20e0	; 0x20e0 <fputc>
    1e98:	3a 94       	dec	r3
    1e9a:	f4 cf       	rjmp	.-24     	; 0x1e84 <vfprintf+0x174>
    1e9c:	f5 01       	movw	r30, r10
    1e9e:	27 fc       	sbrc	r2, 7
    1ea0:	85 91       	lpm	r24, Z+
    1ea2:	27 fe       	sbrs	r2, 7
    1ea4:	81 91       	ld	r24, Z+
    1ea6:	5f 01       	movw	r10, r30
    1ea8:	b7 01       	movw	r22, r14
    1eaa:	90 e0       	ldi	r25, 0x00	; 0
    1eac:	0e 94 70 10 	call	0x20e0	; 0x20e0 <fputc>
    1eb0:	31 10       	cpse	r3, r1
    1eb2:	3a 94       	dec	r3
    1eb4:	f1 e0       	ldi	r31, 0x01	; 1
    1eb6:	4f 1a       	sub	r4, r31
    1eb8:	51 08       	sbc	r5, r1
    1eba:	41 14       	cp	r4, r1
    1ebc:	51 04       	cpc	r5, r1
    1ebe:	71 f7       	brne	.-36     	; 0x1e9c <vfprintf+0x18c>
    1ec0:	e5 c0       	rjmp	.+458    	; 0x208c <vfprintf+0x37c>
    1ec2:	84 36       	cpi	r24, 0x64	; 100
    1ec4:	11 f0       	breq	.+4      	; 0x1eca <vfprintf+0x1ba>
    1ec6:	89 36       	cpi	r24, 0x69	; 105
    1ec8:	39 f5       	brne	.+78     	; 0x1f18 <vfprintf+0x208>
    1eca:	f8 01       	movw	r30, r16
    1ecc:	27 ff       	sbrs	r18, 7
    1ece:	07 c0       	rjmp	.+14     	; 0x1ede <vfprintf+0x1ce>
    1ed0:	60 81       	ld	r22, Z
    1ed2:	71 81       	ldd	r23, Z+1	; 0x01
    1ed4:	82 81       	ldd	r24, Z+2	; 0x02
    1ed6:	93 81       	ldd	r25, Z+3	; 0x03
    1ed8:	0c 5f       	subi	r16, 0xFC	; 252
    1eda:	1f 4f       	sbci	r17, 0xFF	; 255
    1edc:	08 c0       	rjmp	.+16     	; 0x1eee <vfprintf+0x1de>
    1ede:	60 81       	ld	r22, Z
    1ee0:	71 81       	ldd	r23, Z+1	; 0x01
    1ee2:	07 2e       	mov	r0, r23
    1ee4:	00 0c       	add	r0, r0
    1ee6:	88 0b       	sbc	r24, r24
    1ee8:	99 0b       	sbc	r25, r25
    1eea:	0e 5f       	subi	r16, 0xFE	; 254
    1eec:	1f 4f       	sbci	r17, 0xFF	; 255
    1eee:	2f 76       	andi	r18, 0x6F	; 111
    1ef0:	72 2e       	mov	r7, r18
    1ef2:	97 ff       	sbrs	r25, 7
    1ef4:	09 c0       	rjmp	.+18     	; 0x1f08 <vfprintf+0x1f8>
    1ef6:	90 95       	com	r25
    1ef8:	80 95       	com	r24
    1efa:	70 95       	com	r23
    1efc:	61 95       	neg	r22
    1efe:	7f 4f       	sbci	r23, 0xFF	; 255
    1f00:	8f 4f       	sbci	r24, 0xFF	; 255
    1f02:	9f 4f       	sbci	r25, 0xFF	; 255
    1f04:	20 68       	ori	r18, 0x80	; 128
    1f06:	72 2e       	mov	r7, r18
    1f08:	2a e0       	ldi	r18, 0x0A	; 10
    1f0a:	30 e0       	ldi	r19, 0x00	; 0
    1f0c:	a4 01       	movw	r20, r8
    1f0e:	0e 94 a8 10 	call	0x2150	; 0x2150 <__ultoa_invert>
    1f12:	a8 2e       	mov	r10, r24
    1f14:	a8 18       	sub	r10, r8
    1f16:	44 c0       	rjmp	.+136    	; 0x1fa0 <vfprintf+0x290>
    1f18:	85 37       	cpi	r24, 0x75	; 117
    1f1a:	29 f4       	brne	.+10     	; 0x1f26 <vfprintf+0x216>
    1f1c:	2f 7e       	andi	r18, 0xEF	; 239
    1f1e:	b2 2e       	mov	r11, r18
    1f20:	2a e0       	ldi	r18, 0x0A	; 10
    1f22:	30 e0       	ldi	r19, 0x00	; 0
    1f24:	25 c0       	rjmp	.+74     	; 0x1f70 <vfprintf+0x260>
    1f26:	f2 2f       	mov	r31, r18
    1f28:	f9 7f       	andi	r31, 0xF9	; 249
    1f2a:	bf 2e       	mov	r11, r31
    1f2c:	8f 36       	cpi	r24, 0x6F	; 111
    1f2e:	c1 f0       	breq	.+48     	; 0x1f60 <vfprintf+0x250>
    1f30:	18 f4       	brcc	.+6      	; 0x1f38 <vfprintf+0x228>
    1f32:	88 35       	cpi	r24, 0x58	; 88
    1f34:	79 f0       	breq	.+30     	; 0x1f54 <vfprintf+0x244>
    1f36:	b4 c0       	rjmp	.+360    	; 0x20a0 <vfprintf+0x390>
    1f38:	80 37       	cpi	r24, 0x70	; 112
    1f3a:	19 f0       	breq	.+6      	; 0x1f42 <vfprintf+0x232>
    1f3c:	88 37       	cpi	r24, 0x78	; 120
    1f3e:	21 f0       	breq	.+8      	; 0x1f48 <vfprintf+0x238>
    1f40:	af c0       	rjmp	.+350    	; 0x20a0 <vfprintf+0x390>
    1f42:	2f 2f       	mov	r18, r31
    1f44:	20 61       	ori	r18, 0x10	; 16
    1f46:	b2 2e       	mov	r11, r18
    1f48:	b4 fe       	sbrs	r11, 4
    1f4a:	0d c0       	rjmp	.+26     	; 0x1f66 <vfprintf+0x256>
    1f4c:	8b 2d       	mov	r24, r11
    1f4e:	84 60       	ori	r24, 0x04	; 4
    1f50:	b8 2e       	mov	r11, r24
    1f52:	09 c0       	rjmp	.+18     	; 0x1f66 <vfprintf+0x256>
    1f54:	24 ff       	sbrs	r18, 4
    1f56:	0a c0       	rjmp	.+20     	; 0x1f6c <vfprintf+0x25c>
    1f58:	9f 2f       	mov	r25, r31
    1f5a:	96 60       	ori	r25, 0x06	; 6
    1f5c:	b9 2e       	mov	r11, r25
    1f5e:	06 c0       	rjmp	.+12     	; 0x1f6c <vfprintf+0x25c>
    1f60:	28 e0       	ldi	r18, 0x08	; 8
    1f62:	30 e0       	ldi	r19, 0x00	; 0
    1f64:	05 c0       	rjmp	.+10     	; 0x1f70 <vfprintf+0x260>
    1f66:	20 e1       	ldi	r18, 0x10	; 16
    1f68:	30 e0       	ldi	r19, 0x00	; 0
    1f6a:	02 c0       	rjmp	.+4      	; 0x1f70 <vfprintf+0x260>
    1f6c:	20 e1       	ldi	r18, 0x10	; 16
    1f6e:	32 e0       	ldi	r19, 0x02	; 2
    1f70:	f8 01       	movw	r30, r16
    1f72:	b7 fe       	sbrs	r11, 7
    1f74:	07 c0       	rjmp	.+14     	; 0x1f84 <vfprintf+0x274>
    1f76:	60 81       	ld	r22, Z
    1f78:	71 81       	ldd	r23, Z+1	; 0x01
    1f7a:	82 81       	ldd	r24, Z+2	; 0x02
    1f7c:	93 81       	ldd	r25, Z+3	; 0x03
    1f7e:	0c 5f       	subi	r16, 0xFC	; 252
    1f80:	1f 4f       	sbci	r17, 0xFF	; 255
    1f82:	06 c0       	rjmp	.+12     	; 0x1f90 <vfprintf+0x280>
    1f84:	60 81       	ld	r22, Z
    1f86:	71 81       	ldd	r23, Z+1	; 0x01
    1f88:	80 e0       	ldi	r24, 0x00	; 0
    1f8a:	90 e0       	ldi	r25, 0x00	; 0
    1f8c:	0e 5f       	subi	r16, 0xFE	; 254
    1f8e:	1f 4f       	sbci	r17, 0xFF	; 255
    1f90:	a4 01       	movw	r20, r8
    1f92:	0e 94 a8 10 	call	0x2150	; 0x2150 <__ultoa_invert>
    1f96:	a8 2e       	mov	r10, r24
    1f98:	a8 18       	sub	r10, r8
    1f9a:	fb 2d       	mov	r31, r11
    1f9c:	ff 77       	andi	r31, 0x7F	; 127
    1f9e:	7f 2e       	mov	r7, r31
    1fa0:	76 fe       	sbrs	r7, 6
    1fa2:	0b c0       	rjmp	.+22     	; 0x1fba <vfprintf+0x2aa>
    1fa4:	37 2d       	mov	r19, r7
    1fa6:	3e 7f       	andi	r19, 0xFE	; 254
    1fa8:	a5 14       	cp	r10, r5
    1faa:	50 f4       	brcc	.+20     	; 0x1fc0 <vfprintf+0x2b0>
    1fac:	74 fe       	sbrs	r7, 4
    1fae:	0a c0       	rjmp	.+20     	; 0x1fc4 <vfprintf+0x2b4>
    1fb0:	72 fc       	sbrc	r7, 2
    1fb2:	08 c0       	rjmp	.+16     	; 0x1fc4 <vfprintf+0x2b4>
    1fb4:	37 2d       	mov	r19, r7
    1fb6:	3e 7e       	andi	r19, 0xEE	; 238
    1fb8:	05 c0       	rjmp	.+10     	; 0x1fc4 <vfprintf+0x2b4>
    1fba:	ba 2c       	mov	r11, r10
    1fbc:	37 2d       	mov	r19, r7
    1fbe:	03 c0       	rjmp	.+6      	; 0x1fc6 <vfprintf+0x2b6>
    1fc0:	ba 2c       	mov	r11, r10
    1fc2:	01 c0       	rjmp	.+2      	; 0x1fc6 <vfprintf+0x2b6>
    1fc4:	b5 2c       	mov	r11, r5
    1fc6:	34 ff       	sbrs	r19, 4
    1fc8:	0d c0       	rjmp	.+26     	; 0x1fe4 <vfprintf+0x2d4>
    1fca:	fe 01       	movw	r30, r28
    1fcc:	ea 0d       	add	r30, r10
    1fce:	f1 1d       	adc	r31, r1
    1fd0:	80 81       	ld	r24, Z
    1fd2:	80 33       	cpi	r24, 0x30	; 48
    1fd4:	11 f4       	brne	.+4      	; 0x1fda <vfprintf+0x2ca>
    1fd6:	39 7e       	andi	r19, 0xE9	; 233
    1fd8:	09 c0       	rjmp	.+18     	; 0x1fec <vfprintf+0x2dc>
    1fda:	32 ff       	sbrs	r19, 2
    1fdc:	06 c0       	rjmp	.+12     	; 0x1fea <vfprintf+0x2da>
    1fde:	b3 94       	inc	r11
    1fe0:	b3 94       	inc	r11
    1fe2:	04 c0       	rjmp	.+8      	; 0x1fec <vfprintf+0x2dc>
    1fe4:	83 2f       	mov	r24, r19
    1fe6:	86 78       	andi	r24, 0x86	; 134
    1fe8:	09 f0       	breq	.+2      	; 0x1fec <vfprintf+0x2dc>
    1fea:	b3 94       	inc	r11
    1fec:	33 fd       	sbrc	r19, 3
    1fee:	13 c0       	rjmp	.+38     	; 0x2016 <vfprintf+0x306>
    1ff0:	30 ff       	sbrs	r19, 0
    1ff2:	06 c0       	rjmp	.+12     	; 0x2000 <vfprintf+0x2f0>
    1ff4:	5a 2c       	mov	r5, r10
    1ff6:	b3 14       	cp	r11, r3
    1ff8:	18 f4       	brcc	.+6      	; 0x2000 <vfprintf+0x2f0>
    1ffa:	53 0c       	add	r5, r3
    1ffc:	5b 18       	sub	r5, r11
    1ffe:	b3 2c       	mov	r11, r3
    2000:	b3 14       	cp	r11, r3
    2002:	68 f4       	brcc	.+26     	; 0x201e <vfprintf+0x30e>
    2004:	b7 01       	movw	r22, r14
    2006:	80 e2       	ldi	r24, 0x20	; 32
    2008:	90 e0       	ldi	r25, 0x00	; 0
    200a:	3c 87       	std	Y+12, r19	; 0x0c
    200c:	0e 94 70 10 	call	0x20e0	; 0x20e0 <fputc>
    2010:	b3 94       	inc	r11
    2012:	3c 85       	ldd	r19, Y+12	; 0x0c
    2014:	f5 cf       	rjmp	.-22     	; 0x2000 <vfprintf+0x2f0>
    2016:	b3 14       	cp	r11, r3
    2018:	10 f4       	brcc	.+4      	; 0x201e <vfprintf+0x30e>
    201a:	3b 18       	sub	r3, r11
    201c:	01 c0       	rjmp	.+2      	; 0x2020 <vfprintf+0x310>
    201e:	31 2c       	mov	r3, r1
    2020:	34 ff       	sbrs	r19, 4
    2022:	12 c0       	rjmp	.+36     	; 0x2048 <vfprintf+0x338>
    2024:	b7 01       	movw	r22, r14
    2026:	80 e3       	ldi	r24, 0x30	; 48
    2028:	90 e0       	ldi	r25, 0x00	; 0
    202a:	3c 87       	std	Y+12, r19	; 0x0c
    202c:	0e 94 70 10 	call	0x20e0	; 0x20e0 <fputc>
    2030:	3c 85       	ldd	r19, Y+12	; 0x0c
    2032:	32 ff       	sbrs	r19, 2
    2034:	17 c0       	rjmp	.+46     	; 0x2064 <vfprintf+0x354>
    2036:	31 fd       	sbrc	r19, 1
    2038:	03 c0       	rjmp	.+6      	; 0x2040 <vfprintf+0x330>
    203a:	88 e7       	ldi	r24, 0x78	; 120
    203c:	90 e0       	ldi	r25, 0x00	; 0
    203e:	02 c0       	rjmp	.+4      	; 0x2044 <vfprintf+0x334>
    2040:	88 e5       	ldi	r24, 0x58	; 88
    2042:	90 e0       	ldi	r25, 0x00	; 0
    2044:	b7 01       	movw	r22, r14
    2046:	0c c0       	rjmp	.+24     	; 0x2060 <vfprintf+0x350>
    2048:	83 2f       	mov	r24, r19
    204a:	86 78       	andi	r24, 0x86	; 134
    204c:	59 f0       	breq	.+22     	; 0x2064 <vfprintf+0x354>
    204e:	31 ff       	sbrs	r19, 1
    2050:	02 c0       	rjmp	.+4      	; 0x2056 <vfprintf+0x346>
    2052:	8b e2       	ldi	r24, 0x2B	; 43
    2054:	01 c0       	rjmp	.+2      	; 0x2058 <vfprintf+0x348>
    2056:	80 e2       	ldi	r24, 0x20	; 32
    2058:	37 fd       	sbrc	r19, 7
    205a:	8d e2       	ldi	r24, 0x2D	; 45
    205c:	b7 01       	movw	r22, r14
    205e:	90 e0       	ldi	r25, 0x00	; 0
    2060:	0e 94 70 10 	call	0x20e0	; 0x20e0 <fputc>
    2064:	a5 14       	cp	r10, r5
    2066:	38 f4       	brcc	.+14     	; 0x2076 <vfprintf+0x366>
    2068:	b7 01       	movw	r22, r14
    206a:	80 e3       	ldi	r24, 0x30	; 48
    206c:	90 e0       	ldi	r25, 0x00	; 0
    206e:	0e 94 70 10 	call	0x20e0	; 0x20e0 <fputc>
    2072:	5a 94       	dec	r5
    2074:	f7 cf       	rjmp	.-18     	; 0x2064 <vfprintf+0x354>
    2076:	aa 94       	dec	r10
    2078:	f4 01       	movw	r30, r8
    207a:	ea 0d       	add	r30, r10
    207c:	f1 1d       	adc	r31, r1
    207e:	80 81       	ld	r24, Z
    2080:	b7 01       	movw	r22, r14
    2082:	90 e0       	ldi	r25, 0x00	; 0
    2084:	0e 94 70 10 	call	0x20e0	; 0x20e0 <fputc>
    2088:	a1 10       	cpse	r10, r1
    208a:	f5 cf       	rjmp	.-22     	; 0x2076 <vfprintf+0x366>
    208c:	33 20       	and	r3, r3
    208e:	09 f4       	brne	.+2      	; 0x2092 <vfprintf+0x382>
    2090:	51 ce       	rjmp	.-862    	; 0x1d34 <vfprintf+0x24>
    2092:	b7 01       	movw	r22, r14
    2094:	80 e2       	ldi	r24, 0x20	; 32
    2096:	90 e0       	ldi	r25, 0x00	; 0
    2098:	0e 94 70 10 	call	0x20e0	; 0x20e0 <fputc>
    209c:	3a 94       	dec	r3
    209e:	f6 cf       	rjmp	.-20     	; 0x208c <vfprintf+0x37c>
    20a0:	f7 01       	movw	r30, r14
    20a2:	86 81       	ldd	r24, Z+6	; 0x06
    20a4:	97 81       	ldd	r25, Z+7	; 0x07
    20a6:	02 c0       	rjmp	.+4      	; 0x20ac <vfprintf+0x39c>
    20a8:	8f ef       	ldi	r24, 0xFF	; 255
    20aa:	9f ef       	ldi	r25, 0xFF	; 255
    20ac:	2c 96       	adiw	r28, 0x0c	; 12
    20ae:	e2 e1       	ldi	r30, 0x12	; 18
    20b0:	0c 94 d2 0d 	jmp	0x1ba4	; 0x1ba4 <__epilogue_restores__>

000020b4 <strnlen_P>:
    20b4:	fc 01       	movw	r30, r24
    20b6:	05 90       	lpm	r0, Z+
    20b8:	61 50       	subi	r22, 0x01	; 1
    20ba:	70 40       	sbci	r23, 0x00	; 0
    20bc:	01 10       	cpse	r0, r1
    20be:	d8 f7       	brcc	.-10     	; 0x20b6 <strnlen_P+0x2>
    20c0:	80 95       	com	r24
    20c2:	90 95       	com	r25
    20c4:	8e 0f       	add	r24, r30
    20c6:	9f 1f       	adc	r25, r31
    20c8:	08 95       	ret

000020ca <strnlen>:
    20ca:	fc 01       	movw	r30, r24
    20cc:	61 50       	subi	r22, 0x01	; 1
    20ce:	70 40       	sbci	r23, 0x00	; 0
    20d0:	01 90       	ld	r0, Z+
    20d2:	01 10       	cpse	r0, r1
    20d4:	d8 f7       	brcc	.-10     	; 0x20cc <strnlen+0x2>
    20d6:	80 95       	com	r24
    20d8:	90 95       	com	r25
    20da:	8e 0f       	add	r24, r30
    20dc:	9f 1f       	adc	r25, r31
    20de:	08 95       	ret

000020e0 <fputc>:
    20e0:	0f 93       	push	r16
    20e2:	1f 93       	push	r17
    20e4:	cf 93       	push	r28
    20e6:	df 93       	push	r29
    20e8:	fb 01       	movw	r30, r22
    20ea:	23 81       	ldd	r18, Z+3	; 0x03
    20ec:	21 fd       	sbrc	r18, 1
    20ee:	03 c0       	rjmp	.+6      	; 0x20f6 <fputc+0x16>
    20f0:	8f ef       	ldi	r24, 0xFF	; 255
    20f2:	9f ef       	ldi	r25, 0xFF	; 255
    20f4:	28 c0       	rjmp	.+80     	; 0x2146 <fputc+0x66>
    20f6:	22 ff       	sbrs	r18, 2
    20f8:	16 c0       	rjmp	.+44     	; 0x2126 <fputc+0x46>
    20fa:	46 81       	ldd	r20, Z+6	; 0x06
    20fc:	57 81       	ldd	r21, Z+7	; 0x07
    20fe:	24 81       	ldd	r18, Z+4	; 0x04
    2100:	35 81       	ldd	r19, Z+5	; 0x05
    2102:	42 17       	cp	r20, r18
    2104:	53 07       	cpc	r21, r19
    2106:	44 f4       	brge	.+16     	; 0x2118 <fputc+0x38>
    2108:	a0 81       	ld	r26, Z
    210a:	b1 81       	ldd	r27, Z+1	; 0x01
    210c:	9d 01       	movw	r18, r26
    210e:	2f 5f       	subi	r18, 0xFF	; 255
    2110:	3f 4f       	sbci	r19, 0xFF	; 255
    2112:	31 83       	std	Z+1, r19	; 0x01
    2114:	20 83       	st	Z, r18
    2116:	8c 93       	st	X, r24
    2118:	26 81       	ldd	r18, Z+6	; 0x06
    211a:	37 81       	ldd	r19, Z+7	; 0x07
    211c:	2f 5f       	subi	r18, 0xFF	; 255
    211e:	3f 4f       	sbci	r19, 0xFF	; 255
    2120:	37 83       	std	Z+7, r19	; 0x07
    2122:	26 83       	std	Z+6, r18	; 0x06
    2124:	10 c0       	rjmp	.+32     	; 0x2146 <fputc+0x66>
    2126:	eb 01       	movw	r28, r22
    2128:	09 2f       	mov	r16, r25
    212a:	18 2f       	mov	r17, r24
    212c:	00 84       	ldd	r0, Z+8	; 0x08
    212e:	f1 85       	ldd	r31, Z+9	; 0x09
    2130:	e0 2d       	mov	r30, r0
    2132:	09 95       	icall
    2134:	89 2b       	or	r24, r25
    2136:	e1 f6       	brne	.-72     	; 0x20f0 <fputc+0x10>
    2138:	8e 81       	ldd	r24, Y+6	; 0x06
    213a:	9f 81       	ldd	r25, Y+7	; 0x07
    213c:	01 96       	adiw	r24, 0x01	; 1
    213e:	9f 83       	std	Y+7, r25	; 0x07
    2140:	8e 83       	std	Y+6, r24	; 0x06
    2142:	81 2f       	mov	r24, r17
    2144:	90 2f       	mov	r25, r16
    2146:	df 91       	pop	r29
    2148:	cf 91       	pop	r28
    214a:	1f 91       	pop	r17
    214c:	0f 91       	pop	r16
    214e:	08 95       	ret

00002150 <__ultoa_invert>:
    2150:	fa 01       	movw	r30, r20
    2152:	aa 27       	eor	r26, r26
    2154:	28 30       	cpi	r18, 0x08	; 8
    2156:	51 f1       	breq	.+84     	; 0x21ac <__ultoa_invert+0x5c>
    2158:	20 31       	cpi	r18, 0x10	; 16
    215a:	81 f1       	breq	.+96     	; 0x21bc <__ultoa_invert+0x6c>
    215c:	e8 94       	clt
    215e:	6f 93       	push	r22
    2160:	6e 7f       	andi	r22, 0xFE	; 254
    2162:	6e 5f       	subi	r22, 0xFE	; 254
    2164:	7f 4f       	sbci	r23, 0xFF	; 255
    2166:	8f 4f       	sbci	r24, 0xFF	; 255
    2168:	9f 4f       	sbci	r25, 0xFF	; 255
    216a:	af 4f       	sbci	r26, 0xFF	; 255
    216c:	b1 e0       	ldi	r27, 0x01	; 1
    216e:	3e d0       	rcall	.+124    	; 0x21ec <__ultoa_invert+0x9c>
    2170:	b4 e0       	ldi	r27, 0x04	; 4
    2172:	3c d0       	rcall	.+120    	; 0x21ec <__ultoa_invert+0x9c>
    2174:	67 0f       	add	r22, r23
    2176:	78 1f       	adc	r23, r24
    2178:	89 1f       	adc	r24, r25
    217a:	9a 1f       	adc	r25, r26
    217c:	a1 1d       	adc	r26, r1
    217e:	68 0f       	add	r22, r24
    2180:	79 1f       	adc	r23, r25
    2182:	8a 1f       	adc	r24, r26
    2184:	91 1d       	adc	r25, r1
    2186:	a1 1d       	adc	r26, r1
    2188:	6a 0f       	add	r22, r26
    218a:	71 1d       	adc	r23, r1
    218c:	81 1d       	adc	r24, r1
    218e:	91 1d       	adc	r25, r1
    2190:	a1 1d       	adc	r26, r1
    2192:	20 d0       	rcall	.+64     	; 0x21d4 <__ultoa_invert+0x84>
    2194:	09 f4       	brne	.+2      	; 0x2198 <__ultoa_invert+0x48>
    2196:	68 94       	set
    2198:	3f 91       	pop	r19
    219a:	2a e0       	ldi	r18, 0x0A	; 10
    219c:	26 9f       	mul	r18, r22
    219e:	11 24       	eor	r1, r1
    21a0:	30 19       	sub	r19, r0
    21a2:	30 5d       	subi	r19, 0xD0	; 208
    21a4:	31 93       	st	Z+, r19
    21a6:	de f6       	brtc	.-74     	; 0x215e <__ultoa_invert+0xe>
    21a8:	cf 01       	movw	r24, r30
    21aa:	08 95       	ret
    21ac:	46 2f       	mov	r20, r22
    21ae:	47 70       	andi	r20, 0x07	; 7
    21b0:	40 5d       	subi	r20, 0xD0	; 208
    21b2:	41 93       	st	Z+, r20
    21b4:	b3 e0       	ldi	r27, 0x03	; 3
    21b6:	0f d0       	rcall	.+30     	; 0x21d6 <__ultoa_invert+0x86>
    21b8:	c9 f7       	brne	.-14     	; 0x21ac <__ultoa_invert+0x5c>
    21ba:	f6 cf       	rjmp	.-20     	; 0x21a8 <__ultoa_invert+0x58>
    21bc:	46 2f       	mov	r20, r22
    21be:	4f 70       	andi	r20, 0x0F	; 15
    21c0:	40 5d       	subi	r20, 0xD0	; 208
    21c2:	4a 33       	cpi	r20, 0x3A	; 58
    21c4:	18 f0       	brcs	.+6      	; 0x21cc <__ultoa_invert+0x7c>
    21c6:	49 5d       	subi	r20, 0xD9	; 217
    21c8:	31 fd       	sbrc	r19, 1
    21ca:	40 52       	subi	r20, 0x20	; 32
    21cc:	41 93       	st	Z+, r20
    21ce:	02 d0       	rcall	.+4      	; 0x21d4 <__ultoa_invert+0x84>
    21d0:	a9 f7       	brne	.-22     	; 0x21bc <__ultoa_invert+0x6c>
    21d2:	ea cf       	rjmp	.-44     	; 0x21a8 <__ultoa_invert+0x58>
    21d4:	b4 e0       	ldi	r27, 0x04	; 4
    21d6:	a6 95       	lsr	r26
    21d8:	97 95       	ror	r25
    21da:	87 95       	ror	r24
    21dc:	77 95       	ror	r23
    21de:	67 95       	ror	r22
    21e0:	ba 95       	dec	r27
    21e2:	c9 f7       	brne	.-14     	; 0x21d6 <__ultoa_invert+0x86>
    21e4:	00 97       	sbiw	r24, 0x00	; 0
    21e6:	61 05       	cpc	r22, r1
    21e8:	71 05       	cpc	r23, r1
    21ea:	08 95       	ret
    21ec:	9b 01       	movw	r18, r22
    21ee:	ac 01       	movw	r20, r24
    21f0:	0a 2e       	mov	r0, r26
    21f2:	06 94       	lsr	r0
    21f4:	57 95       	ror	r21
    21f6:	47 95       	ror	r20
    21f8:	37 95       	ror	r19
    21fa:	27 95       	ror	r18
    21fc:	ba 95       	dec	r27
    21fe:	c9 f7       	brne	.-14     	; 0x21f2 <__ultoa_invert+0xa2>
    2200:	62 0f       	add	r22, r18
    2202:	73 1f       	adc	r23, r19
    2204:	84 1f       	adc	r24, r20
    2206:	95 1f       	adc	r25, r21
    2208:	a0 1d       	adc	r26, r0
    220a:	08 95       	ret

0000220c <_exit>:
    220c:	f8 94       	cli

0000220e <__stop_program>:
    220e:	ff cf       	rjmp	.-2      	; 0x220e <__stop_program>
