
DuckWatch.elf:     file format elf32-avr

Sections:
Idx Name          Size      VMA       LMA       File off  Algn
  0 .data         000004c0  00800100  00002a2e  00002ac2  2**0
                  CONTENTS, ALLOC, LOAD, DATA
  1 .text         00002a2e  00000000  00000000  00000094  2**1
                  CONTENTS, ALLOC, LOAD, READONLY, CODE
  2 .bss          0000010a  008005c0  008005c0  00002f82  2**0
                  ALLOC
  3 .comment      0000005c  00000000  00000000  00002f82  2**0
                  CONTENTS, READONLY
  4 .note.gnu.avr.deviceinfo 00000040  00000000  00000000  00002fe0  2**2
                  CONTENTS, READONLY
  5 .debug_aranges 00000300  00000000  00000000  00003020  2**0
                  CONTENTS, READONLY, DEBUGGING
  6 .debug_info   000053f9  00000000  00000000  00003320  2**0
                  CONTENTS, READONLY, DEBUGGING
  7 .debug_abbrev 00001949  00000000  00000000  00008719  2**0
                  CONTENTS, READONLY, DEBUGGING
  8 .debug_line   00001132  00000000  00000000  0000a062  2**0
                  CONTENTS, READONLY, DEBUGGING
  9 .debug_frame  00000b84  00000000  00000000  0000b194  2**2
                  CONTENTS, READONLY, DEBUGGING
 10 .debug_str    00000ee6  00000000  00000000  0000bd18  2**0
                  CONTENTS, READONLY, DEBUGGING
 11 .debug_loc    00003349  00000000  00000000  0000cbfe  2**0
                  CONTENTS, READONLY, DEBUGGING
 12 .debug_ranges 000002b8  00000000  00000000  0000ff47  2**0
                  CONTENTS, READONLY, DEBUGGING

Disassembly of section .text:

00000000 <__vectors>:
       0:	0c 94 34 00 	jmp	0x68	; 0x68 <__ctors_end>
       4:	0c 94 51 00 	jmp	0xa2	; 0xa2 <__bad_interrupt>
       8:	0c 94 51 00 	jmp	0xa2	; 0xa2 <__bad_interrupt>
       c:	0c 94 51 00 	jmp	0xa2	; 0xa2 <__bad_interrupt>
      10:	0c 94 51 00 	jmp	0xa2	; 0xa2 <__bad_interrupt>
      14:	0c 94 08 0e 	jmp	0x1c10	; 0x1c10 <__vector_5>
      18:	0c 94 51 00 	jmp	0xa2	; 0xa2 <__bad_interrupt>
      1c:	0c 94 51 00 	jmp	0xa2	; 0xa2 <__bad_interrupt>
      20:	0c 94 51 00 	jmp	0xa2	; 0xa2 <__bad_interrupt>
      24:	0c 94 51 00 	jmp	0xa2	; 0xa2 <__bad_interrupt>
      28:	0c 94 51 00 	jmp	0xa2	; 0xa2 <__bad_interrupt>
      2c:	0c 94 51 00 	jmp	0xa2	; 0xa2 <__bad_interrupt>
      30:	0c 94 51 00 	jmp	0xa2	; 0xa2 <__bad_interrupt>
      34:	0c 94 51 00 	jmp	0xa2	; 0xa2 <__bad_interrupt>
      38:	0c 94 47 0e 	jmp	0x1c8e	; 0x1c8e <__vector_14>
      3c:	0c 94 82 0e 	jmp	0x1d04	; 0x1d04 <__vector_15>
      40:	0c 94 51 00 	jmp	0xa2	; 0xa2 <__bad_interrupt>
      44:	0c 94 51 00 	jmp	0xa2	; 0xa2 <__bad_interrupt>
      48:	0c 94 51 00 	jmp	0xa2	; 0xa2 <__bad_interrupt>
      4c:	0c 94 51 00 	jmp	0xa2	; 0xa2 <__bad_interrupt>
      50:	0c 94 51 00 	jmp	0xa2	; 0xa2 <__bad_interrupt>
      54:	0c 94 51 00 	jmp	0xa2	; 0xa2 <__bad_interrupt>
      58:	0c 94 51 00 	jmp	0xa2	; 0xa2 <__bad_interrupt>
      5c:	0c 94 51 00 	jmp	0xa2	; 0xa2 <__bad_interrupt>
      60:	0c 94 51 00 	jmp	0xa2	; 0xa2 <__bad_interrupt>
      64:	0c 94 51 00 	jmp	0xa2	; 0xa2 <__bad_interrupt>

00000068 <__ctors_end>:
      68:	11 24       	eor	r1, r1
      6a:	1f be       	out	0x3f, r1	; 63
      6c:	cf ef       	ldi	r28, 0xFF	; 255
      6e:	d8 e0       	ldi	r29, 0x08	; 8
      70:	de bf       	out	0x3e, r29	; 62
      72:	cd bf       	out	0x3d, r28	; 61

00000074 <__do_copy_data>:
      74:	15 e0       	ldi	r17, 0x05	; 5
      76:	a0 e0       	ldi	r26, 0x00	; 0
      78:	b1 e0       	ldi	r27, 0x01	; 1
      7a:	ee e2       	ldi	r30, 0x2E	; 46
      7c:	fa e2       	ldi	r31, 0x2A	; 42
      7e:	02 c0       	rjmp	.+4      	; 0x84 <__do_copy_data+0x10>
      80:	05 90       	lpm	r0, Z+
      82:	0d 92       	st	X+, r0
      84:	a0 3c       	cpi	r26, 0xC0	; 192
      86:	b1 07       	cpc	r27, r17
      88:	d9 f7       	brne	.-10     	; 0x80 <__do_copy_data+0xc>

0000008a <__do_clear_bss>:
      8a:	26 e0       	ldi	r18, 0x06	; 6
      8c:	a0 ec       	ldi	r26, 0xC0	; 192
      8e:	b5 e0       	ldi	r27, 0x05	; 5
      90:	01 c0       	rjmp	.+2      	; 0x94 <.do_clear_bss_start>

00000092 <.do_clear_bss_loop>:
      92:	1d 92       	st	X+, r1

00000094 <.do_clear_bss_start>:
      94:	aa 3c       	cpi	r26, 0xCA	; 202
      96:	b2 07       	cpc	r27, r18
      98:	e1 f7       	brne	.-8      	; 0x92 <.do_clear_bss_loop>
      9a:	0e 94 79 0a 	call	0x14f2	; 0x14f2 <main>
      9e:	0c 94 15 15 	jmp	0x2a2a	; 0x2a2a <_exit>

000000a2 <__bad_interrupt>:
      a2:	0c 94 00 00 	jmp	0	; 0x0 <__vectors>

000000a6 <_ZN6BME2804initEv>:
      a6:	cf 93       	push	r28
      a8:	df 93       	push	r29
      aa:	ec 01       	movw	r28, r24
      ac:	21 e0       	ldi	r18, 0x01	; 1
      ae:	42 ef       	ldi	r20, 0xF2	; 242
      b0:	6e ee       	ldi	r22, 0xEE	; 238
      b2:	88 81       	ld	r24, Y
      b4:	99 81       	ldd	r25, Y+1	; 0x01
      b6:	0e 94 c1 08 	call	0x1182	; 0x1182 <_ZN3i2c5writeEhhh>
      ba:	81 11       	cpse	r24, r1
      bc:	10 c0       	rjmp	.+32     	; 0xde <_ZN6BME2804initEv+0x38>
      be:	27 e3       	ldi	r18, 0x37	; 55
      c0:	44 ef       	ldi	r20, 0xF4	; 244
      c2:	6e ee       	ldi	r22, 0xEE	; 238
      c4:	88 81       	ld	r24, Y
      c6:	99 81       	ldd	r25, Y+1	; 0x01
      c8:	0e 94 c1 08 	call	0x1182	; 0x1182 <_ZN3i2c5writeEhhh>
      cc:	81 11       	cpse	r24, r1
      ce:	07 c0       	rjmp	.+14     	; 0xde <_ZN6BME2804initEv+0x38>
      d0:	20 e0       	ldi	r18, 0x00	; 0
      d2:	45 ef       	ldi	r20, 0xF5	; 245
      d4:	6e ee       	ldi	r22, 0xEE	; 238
      d6:	88 81       	ld	r24, Y
      d8:	99 81       	ldd	r25, Y+1	; 0x01
      da:	0e 94 c1 08 	call	0x1182	; 0x1182 <_ZN3i2c5writeEhhh>
      de:	df 91       	pop	r29
      e0:	cf 91       	pop	r28
      e2:	08 95       	ret

000000e4 <_ZN6BME28016convert_pressureEv>:
      e4:	2f 92       	push	r2
      e6:	3f 92       	push	r3
      e8:	4f 92       	push	r4
      ea:	5f 92       	push	r5
      ec:	6f 92       	push	r6
      ee:	7f 92       	push	r7
      f0:	8f 92       	push	r8
      f2:	9f 92       	push	r9
      f4:	af 92       	push	r10
      f6:	bf 92       	push	r11
      f8:	cf 92       	push	r12
      fa:	df 92       	push	r13
      fc:	ef 92       	push	r14
      fe:	ff 92       	push	r15
     100:	0f 93       	push	r16
     102:	1f 93       	push	r17
     104:	cf 93       	push	r28
     106:	df 93       	push	r29
     108:	cd b7       	in	r28, 0x3d	; 61
     10a:	de b7       	in	r29, 0x3e	; 62
     10c:	a0 97       	sbiw	r28, 0x20	; 32
     10e:	0f b6       	in	r0, 0x3f	; 63
     110:	f8 94       	cli
     112:	de bf       	out	0x3e, r29	; 62
     114:	0f be       	out	0x3f, r0	; 63
     116:	cd bf       	out	0x3d, r28	; 61
     118:	98 a3       	std	Y+32, r25	; 0x20
     11a:	8f 8f       	std	Y+31, r24	; 0x1f
     11c:	fc 01       	movw	r30, r24
     11e:	80 85       	ldd	r24, Z+8	; 0x08
     120:	91 85       	ldd	r25, Z+9	; 0x09
     122:	a2 85       	ldd	r26, Z+10	; 0x0a
     124:	b3 85       	ldd	r27, Z+11	; 0x0b
     126:	9c 01       	movw	r18, r24
     128:	ad 01       	movw	r20, r26
     12a:	68 94       	set
     12c:	13 f8       	bld	r1, 3
     12e:	55 95       	asr	r21
     130:	47 95       	ror	r20
     132:	37 95       	ror	r19
     134:	27 95       	ror	r18
     136:	16 94       	lsr	r1
     138:	d1 f7       	brne	.-12     	; 0x12e <_ZN6BME28016convert_pressureEv+0x4a>
     13a:	2d 87       	std	Y+13, r18	; 0x0d
     13c:	3e 87       	std	Y+14, r19	; 0x0e
     13e:	4f 87       	std	Y+15, r20	; 0x0f
     140:	58 8b       	std	Y+16, r21	; 0x10
     142:	20 87       	std	Z+8, r18	; 0x08
     144:	31 87       	std	Z+9, r19	; 0x09
     146:	42 87       	std	Z+10, r20	; 0x0a
     148:	53 87       	std	Z+11, r21	; 0x0b
     14a:	ef 5b       	subi	r30, 0xBF	; 191
     14c:	ff 4f       	sbci	r31, 0xFF	; 255
     14e:	80 81       	ld	r24, Z
     150:	91 81       	ldd	r25, Z+1	; 0x01
     152:	a2 81       	ldd	r26, Z+2	; 0x02
     154:	b3 81       	ldd	r27, Z+3	; 0x03
     156:	6c 01       	movw	r12, r24
     158:	7d 01       	movw	r14, r26
     15a:	ff 0c       	add	r15, r15
     15c:	cc 08       	sbc	r12, r12
     15e:	dc 2c       	mov	r13, r12
     160:	76 01       	movw	r14, r12
     162:	28 2f       	mov	r18, r24
     164:	39 2f       	mov	r19, r25
     166:	4a 2f       	mov	r20, r26
     168:	5b 2f       	mov	r21, r27
     16a:	6c 2d       	mov	r22, r12
     16c:	7c 2d       	mov	r23, r12
     16e:	8c 2d       	mov	r24, r12
     170:	9c 2d       	mov	r25, r12
     172:	34 5f       	subi	r19, 0xF4	; 244
     174:	41 40       	sbci	r20, 0x01	; 1
     176:	51 09       	sbc	r21, r1
     178:	61 09       	sbc	r22, r1
     17a:	71 09       	sbc	r23, r1
     17c:	81 09       	sbc	r24, r1
     17e:	91 09       	sbc	r25, r1
     180:	29 83       	std	Y+1, r18	; 0x01
     182:	3a 83       	std	Y+2, r19	; 0x02
     184:	4b 83       	std	Y+3, r20	; 0x03
     186:	5c 83       	std	Y+4, r21	; 0x04
     188:	6d 83       	std	Y+5, r22	; 0x05
     18a:	7e 83       	std	Y+6, r23	; 0x06
     18c:	8f 83       	std	Y+7, r24	; 0x07
     18e:	98 87       	std	Y+8, r25	; 0x08
     190:	a2 2e       	mov	r10, r18
     192:	b3 2e       	mov	r11, r19
     194:	c4 2e       	mov	r12, r20
     196:	d5 2e       	mov	r13, r21
     198:	e6 2e       	mov	r14, r22
     19a:	f7 2e       	mov	r15, r23
     19c:	08 2f       	mov	r16, r24
     19e:	19 2f       	mov	r17, r25
     1a0:	0e 94 cc 10 	call	0x2198	; 0x2198 <__muldi3>
     1a4:	29 87       	std	Y+9, r18	; 0x09
     1a6:	3a 87       	std	Y+10, r19	; 0x0a
     1a8:	4b 87       	std	Y+11, r20	; 0x0b
     1aa:	5c 87       	std	Y+12, r21	; 0x0c
     1ac:	6d 8b       	std	Y+21, r22	; 0x15
     1ae:	7e 8b       	std	Y+22, r23	; 0x16
     1b0:	8f 8b       	std	Y+23, r24	; 0x17
     1b2:	98 8f       	std	Y+24, r25	; 0x18
     1b4:	ef 8d       	ldd	r30, Y+31	; 0x1f
     1b6:	f8 a1       	ldd	r31, Y+32	; 0x20
     1b8:	f0 a9       	ldd	r31, Z+48	; 0x30
     1ba:	fc 8f       	std	Y+28, r31	; 0x1c
     1bc:	af 8d       	ldd	r26, Y+31	; 0x1f
     1be:	b8 a1       	ldd	r27, Y+32	; 0x20
     1c0:	d1 96       	adiw	r26, 0x31	; 49
     1c2:	bc 91       	ld	r27, X
     1c4:	b9 8f       	std	Y+25, r27	; 0x19
     1c6:	ef 8d       	ldd	r30, Y+31	; 0x1f
     1c8:	f8 a1       	ldd	r31, Y+32	; 0x20
     1ca:	f6 a5       	ldd	r31, Z+46	; 0x2e
     1cc:	fd 8f       	std	Y+29, r31	; 0x1d
     1ce:	af 8d       	ldd	r26, Y+31	; 0x1f
     1d0:	b8 a1       	ldd	r27, Y+32	; 0x20
     1d2:	9f 96       	adiw	r26, 0x2f	; 47
     1d4:	bc 91       	ld	r27, X
     1d6:	ba 8f       	std	Y+26, r27	; 0x1a
     1d8:	ef 8d       	ldd	r30, Y+31	; 0x1f
     1da:	f8 a1       	ldd	r31, Y+32	; 0x20
     1dc:	f4 a5       	ldd	r31, Z+44	; 0x2c
     1de:	fe 8f       	std	Y+30, r31	; 0x1e
     1e0:	af 8d       	ldd	r26, Y+31	; 0x1f
     1e2:	b8 a1       	ldd	r27, Y+32	; 0x20
     1e4:	9d 96       	adiw	r26, 0x2d	; 45
     1e6:	bc 91       	ld	r27, X
     1e8:	bb 8f       	std	Y+27, r27	; 0x1b
     1ea:	ef 8d       	ldd	r30, Y+31	; 0x1f
     1ec:	f8 a1       	ldd	r31, Y+32	; 0x20
     1ee:	31 a5       	ldd	r19, Z+41	; 0x29
     1f0:	20 a5       	ldd	r18, Z+40	; 0x28
     1f2:	93 2f       	mov	r25, r19
     1f4:	99 0f       	add	r25, r25
     1f6:	99 0b       	sbc	r25, r25
     1f8:	49 2f       	mov	r20, r25
     1fa:	59 2f       	mov	r21, r25
     1fc:	69 2f       	mov	r22, r25
     1fe:	79 2f       	mov	r23, r25
     200:	89 2f       	mov	r24, r25
     202:	0e 94 cc 10 	call	0x2198	; 0x2198 <__muldi3>
     206:	0c e0       	ldi	r16, 0x0C	; 12
     208:	0e 94 fc 11 	call	0x23f8	; 0x23f8 <__ashldi3>
     20c:	22 2e       	mov	r2, r18
     20e:	33 2e       	mov	r3, r19
     210:	44 2e       	mov	r4, r20
     212:	55 2e       	mov	r5, r21
     214:	66 2e       	mov	r6, r22
     216:	77 2e       	mov	r7, r23
     218:	88 2e       	mov	r8, r24
     21a:	99 2e       	mov	r9, r25
     21c:	af 8d       	ldd	r26, Y+31	; 0x1f
     21e:	b8 a1       	ldd	r27, Y+32	; 0x20
     220:	9b 96       	adiw	r26, 0x2b	; 43
     222:	bc 90       	ld	r11, X
     224:	9b 97       	sbiw	r26, 0x2b	; 43
     226:	9a 96       	adiw	r26, 0x2a	; 42
     228:	ac 90       	ld	r10, X
     22a:	1b 2d       	mov	r17, r11
     22c:	11 0f       	add	r17, r17
     22e:	11 0b       	sbc	r17, r17
     230:	c1 2e       	mov	r12, r17
     232:	d1 2e       	mov	r13, r17
     234:	e1 2e       	mov	r14, r17
     236:	f1 2e       	mov	r15, r17
     238:	01 2f       	mov	r16, r17
     23a:	29 85       	ldd	r18, Y+9	; 0x09
     23c:	3a 85       	ldd	r19, Y+10	; 0x0a
     23e:	4b 85       	ldd	r20, Y+11	; 0x0b
     240:	5c 85       	ldd	r21, Y+12	; 0x0c
     242:	6d 89       	ldd	r22, Y+21	; 0x15
     244:	7e 89       	ldd	r23, Y+22	; 0x16
     246:	8f 89       	ldd	r24, Y+23	; 0x17
     248:	98 8d       	ldd	r25, Y+24	; 0x18
     24a:	0e 94 cc 10 	call	0x2198	; 0x2198 <__muldi3>
     24e:	08 e0       	ldi	r16, 0x08	; 8
     250:	0e 94 15 12 	call	0x242a	; 0x242a <__ashrdi3>
     254:	a2 2c       	mov	r10, r2
     256:	b3 2c       	mov	r11, r3
     258:	c4 2c       	mov	r12, r4
     25a:	d5 2c       	mov	r13, r5
     25c:	e6 2c       	mov	r14, r6
     25e:	f7 2c       	mov	r15, r7
     260:	08 2d       	mov	r16, r8
     262:	19 2d       	mov	r17, r9
     264:	0e 94 33 12 	call	0x2466	; 0x2466 <__adddi3>
     268:	70 58       	subi	r23, 0x80	; 128
     26a:	8f 4f       	sbci	r24, 0xFF	; 255
     26c:	9f 4f       	sbci	r25, 0xFF	; 255
     26e:	ef 8d       	ldd	r30, Y+31	; 0x1f
     270:	f8 a1       	ldd	r31, Y+32	; 0x20
     272:	26 a0       	ldd	r2, Z+38	; 0x26
     274:	37 a0       	ldd	r3, Z+39	; 0x27
     276:	a2 2c       	mov	r10, r2
     278:	b3 2c       	mov	r11, r3
     27a:	c1 2c       	mov	r12, r1
     27c:	d1 2c       	mov	r13, r1
     27e:	e1 2c       	mov	r14, r1
     280:	f1 2c       	mov	r15, r1
     282:	00 e0       	ldi	r16, 0x00	; 0
     284:	10 e0       	ldi	r17, 0x00	; 0
     286:	0e 94 cc 10 	call	0x2198	; 0x2198 <__muldi3>
     28a:	01 e2       	ldi	r16, 0x21	; 33
     28c:	0e 94 15 12 	call	0x242a	; 0x242a <__ashrdi3>
     290:	29 8b       	std	Y+17, r18	; 0x11
     292:	3a 8b       	std	Y+18, r19	; 0x12
     294:	4b 8b       	std	Y+19, r20	; 0x13
     296:	45 2e       	mov	r4, r21
     298:	56 2e       	mov	r5, r22
     29a:	7c 8b       	std	Y+20, r23	; 0x14
     29c:	38 2e       	mov	r3, r24
     29e:	29 2e       	mov	r2, r25
     2a0:	65 2d       	mov	r22, r5
     2a2:	83 2d       	mov	r24, r3
     2a4:	92 2d       	mov	r25, r2
     2a6:	a0 e0       	ldi	r26, 0x00	; 0
     2a8:	0e 94 45 12 	call	0x248a	; 0x248a <__cmpdi2_s8>
     2ac:	09 f4       	brne	.+2      	; 0x2b0 <_ZN6BME28016convert_pressureEv+0x1cc>
     2ae:	8f c1       	rjmp	.+798    	; 0x5ce <_ZN6BME28016convert_pressureEv+0x4ea>
     2b0:	ac 8c       	ldd	r10, Y+28	; 0x1c
     2b2:	19 8d       	ldd	r17, Y+25	; 0x19
     2b4:	11 0f       	add	r17, r17
     2b6:	11 0b       	sbc	r17, r17
     2b8:	b9 8c       	ldd	r11, Y+25	; 0x19
     2ba:	c1 2e       	mov	r12, r17
     2bc:	d1 2e       	mov	r13, r17
     2be:	e1 2e       	mov	r14, r17
     2c0:	f1 2e       	mov	r15, r17
     2c2:	01 2f       	mov	r16, r17
     2c4:	29 85       	ldd	r18, Y+9	; 0x09
     2c6:	3a 85       	ldd	r19, Y+10	; 0x0a
     2c8:	4b 85       	ldd	r20, Y+11	; 0x0b
     2ca:	5c 85       	ldd	r21, Y+12	; 0x0c
     2cc:	6d 89       	ldd	r22, Y+21	; 0x15
     2ce:	7e 89       	ldd	r23, Y+22	; 0x16
     2d0:	8f 89       	ldd	r24, Y+23	; 0x17
     2d2:	98 8d       	ldd	r25, Y+24	; 0x18
     2d4:	0e 94 cc 10 	call	0x2198	; 0x2198 <__muldi3>
     2d8:	29 87       	std	Y+9, r18	; 0x09
     2da:	3a 87       	std	Y+10, r19	; 0x0a
     2dc:	4b 87       	std	Y+11, r20	; 0x0b
     2de:	75 2e       	mov	r7, r21
     2e0:	86 2e       	mov	r8, r22
     2e2:	97 2e       	mov	r9, r23
     2e4:	8c 87       	std	Y+12, r24	; 0x0c
     2e6:	69 2e       	mov	r6, r25
     2e8:	2d 8d       	ldd	r18, Y+29	; 0x1d
     2ea:	9a 8d       	ldd	r25, Y+26	; 0x1a
     2ec:	99 0f       	add	r25, r25
     2ee:	99 0b       	sbc	r25, r25
     2f0:	a9 80       	ldd	r10, Y+1	; 0x01
     2f2:	ba 80       	ldd	r11, Y+2	; 0x02
     2f4:	cb 80       	ldd	r12, Y+3	; 0x03
     2f6:	dc 80       	ldd	r13, Y+4	; 0x04
     2f8:	ed 80       	ldd	r14, Y+5	; 0x05
     2fa:	fe 80       	ldd	r15, Y+6	; 0x06
     2fc:	0f 81       	ldd	r16, Y+7	; 0x07
     2fe:	18 85       	ldd	r17, Y+8	; 0x08
     300:	3a 8d       	ldd	r19, Y+26	; 0x1a
     302:	49 2f       	mov	r20, r25
     304:	59 2f       	mov	r21, r25
     306:	69 2f       	mov	r22, r25
     308:	79 2f       	mov	r23, r25
     30a:	89 2f       	mov	r24, r25
     30c:	0e 94 cc 10 	call	0x2198	; 0x2198 <__muldi3>
     310:	01 e1       	ldi	r16, 0x11	; 17
     312:	0e 94 fc 11 	call	0x23f8	; 0x23f8 <__ashldi3>
     316:	a9 84       	ldd	r10, Y+9	; 0x09
     318:	ba 84       	ldd	r11, Y+10	; 0x0a
     31a:	cb 84       	ldd	r12, Y+11	; 0x0b
     31c:	d7 2c       	mov	r13, r7
     31e:	e8 2c       	mov	r14, r8
     320:	f9 2c       	mov	r15, r9
     322:	0c 85       	ldd	r16, Y+12	; 0x0c
     324:	16 2d       	mov	r17, r6
     326:	0e 94 33 12 	call	0x2466	; 0x2466 <__adddi3>
     32a:	a2 2e       	mov	r10, r18
     32c:	b3 2e       	mov	r11, r19
     32e:	c4 2e       	mov	r12, r20
     330:	d5 2e       	mov	r13, r21
     332:	e6 2e       	mov	r14, r22
     334:	f7 2e       	mov	r15, r23
     336:	e8 2f       	mov	r30, r24
     338:	19 2f       	mov	r17, r25
     33a:	80 e0       	ldi	r24, 0x00	; 0
     33c:	90 e0       	ldi	r25, 0x00	; 0
     33e:	a0 e1       	ldi	r26, 0x10	; 16
     340:	b0 e0       	ldi	r27, 0x00	; 0
     342:	2d 85       	ldd	r18, Y+13	; 0x0d
     344:	3e 85       	ldd	r19, Y+14	; 0x0e
     346:	4f 85       	ldd	r20, Y+15	; 0x0f
     348:	58 89       	ldd	r21, Y+16	; 0x10
     34a:	82 1b       	sub	r24, r18
     34c:	93 0b       	sbc	r25, r19
     34e:	a4 0b       	sbc	r26, r20
     350:	b5 0b       	sbc	r27, r21
     352:	3c 01       	movw	r6, r24
     354:	4d 01       	movw	r8, r26
     356:	99 0c       	add	r9, r9
     358:	66 08       	sbc	r6, r6
     35a:	76 2c       	mov	r7, r6
     35c:	43 01       	movw	r8, r6
     35e:	28 2f       	mov	r18, r24
     360:	39 2f       	mov	r19, r25
     362:	4a 2f       	mov	r20, r26
     364:	5b 2f       	mov	r21, r27
     366:	66 2d       	mov	r22, r6
     368:	76 2d       	mov	r23, r6
     36a:	86 2d       	mov	r24, r6
     36c:	96 2d       	mov	r25, r6
     36e:	0f e1       	ldi	r16, 0x1F	; 31
     370:	0e 94 fc 11 	call	0x23f8	; 0x23f8 <__ashldi3>
     374:	82 2e       	mov	r8, r18
     376:	93 2e       	mov	r9, r19
     378:	64 2e       	mov	r6, r20
     37a:	75 2e       	mov	r7, r21
     37c:	b6 2f       	mov	r27, r22
     37e:	a7 2f       	mov	r26, r23
     380:	8a 83       	std	Y+2, r24	; 0x02
     382:	f9 2f       	mov	r31, r25
     384:	2e 8d       	ldd	r18, Y+30	; 0x1e
     386:	9b 8d       	ldd	r25, Y+27	; 0x1b
     388:	99 0f       	add	r25, r25
     38a:	99 0b       	sbc	r25, r25
     38c:	3b 8d       	ldd	r19, Y+27	; 0x1b
     38e:	49 2f       	mov	r20, r25
     390:	59 2f       	mov	r21, r25
     392:	69 2f       	mov	r22, r25
     394:	79 2f       	mov	r23, r25
     396:	89 2f       	mov	r24, r25
     398:	03 e2       	ldi	r16, 0x23	; 35
     39a:	0e 94 fc 11 	call	0x23f8	; 0x23f8 <__ashldi3>
     39e:	0e 2f       	mov	r16, r30
     3a0:	0e 94 33 12 	call	0x2466	; 0x2466 <__adddi3>
     3a4:	a2 2e       	mov	r10, r18
     3a6:	b3 2e       	mov	r11, r19
     3a8:	c4 2e       	mov	r12, r20
     3aa:	d5 2e       	mov	r13, r21
     3ac:	e6 2e       	mov	r14, r22
     3ae:	f7 2e       	mov	r15, r23
     3b0:	08 2f       	mov	r16, r24
     3b2:	19 2f       	mov	r17, r25
     3b4:	28 2d       	mov	r18, r8
     3b6:	39 2d       	mov	r19, r9
     3b8:	46 2d       	mov	r20, r6
     3ba:	57 2d       	mov	r21, r7
     3bc:	6b 2f       	mov	r22, r27
     3be:	7a 2f       	mov	r23, r26
     3c0:	8a 81       	ldd	r24, Y+2	; 0x02
     3c2:	9f 2f       	mov	r25, r31
     3c4:	0e 94 3c 12 	call	0x2478	; 0x2478 <__subdi3>
     3c8:	82 2e       	mov	r8, r18
     3ca:	93 2e       	mov	r9, r19
     3cc:	64 2e       	mov	r6, r20
     3ce:	75 2e       	mov	r7, r21
     3d0:	b6 2f       	mov	r27, r22
     3d2:	a7 2f       	mov	r26, r23
     3d4:	e8 2f       	mov	r30, r24
     3d6:	f9 2f       	mov	r31, r25
     3d8:	03 e0       	ldi	r16, 0x03	; 3
     3da:	0e 94 fc 11 	call	0x23f8	; 0x23f8 <__ashldi3>
     3de:	a8 2c       	mov	r10, r8
     3e0:	b9 2c       	mov	r11, r9
     3e2:	c6 2c       	mov	r12, r6
     3e4:	d7 2c       	mov	r13, r7
     3e6:	eb 2e       	mov	r14, r27
     3e8:	fa 2e       	mov	r15, r26
     3ea:	0e 2f       	mov	r16, r30
     3ec:	1f 2f       	mov	r17, r31
     3ee:	0e 94 3c 12 	call	0x2478	; 0x2478 <__subdi3>
     3f2:	a2 2e       	mov	r10, r18
     3f4:	b3 2e       	mov	r11, r19
     3f6:	c4 2e       	mov	r12, r20
     3f8:	d5 2e       	mov	r13, r21
     3fa:	e6 2e       	mov	r14, r22
     3fc:	f7 2e       	mov	r15, r23
     3fe:	89 83       	std	Y+1, r24	; 0x01
     400:	19 2f       	mov	r17, r25
     402:	03 e0       	ldi	r16, 0x03	; 3
     404:	0e 94 fc 11 	call	0x23f8	; 0x23f8 <__ashldi3>
     408:	09 81       	ldd	r16, Y+1	; 0x01
     40a:	0e 94 3c 12 	call	0x2478	; 0x2478 <__subdi3>
     40e:	03 e0       	ldi	r16, 0x03	; 3
     410:	0e 94 fc 11 	call	0x23f8	; 0x23f8 <__ashldi3>
     414:	a8 2c       	mov	r10, r8
     416:	b9 2c       	mov	r11, r9
     418:	c6 2c       	mov	r12, r6
     41a:	d7 2c       	mov	r13, r7
     41c:	eb 2e       	mov	r14, r27
     41e:	fa 2e       	mov	r15, r26
     420:	0e 2f       	mov	r16, r30
     422:	1f 2f       	mov	r17, r31
     424:	0e 94 3c 12 	call	0x2478	; 0x2478 <__subdi3>
     428:	02 e0       	ldi	r16, 0x02	; 2
     42a:	0e 94 fc 11 	call	0x23f8	; 0x23f8 <__ashldi3>
     42e:	0e 2f       	mov	r16, r30
     430:	0e 94 3c 12 	call	0x2478	; 0x2478 <__subdi3>
     434:	01 e0       	ldi	r16, 0x01	; 1
     436:	0e 94 fc 11 	call	0x23f8	; 0x23f8 <__ashldi3>
     43a:	0e 2f       	mov	r16, r30
     43c:	0e 94 3c 12 	call	0x2478	; 0x2478 <__subdi3>
     440:	a9 88       	ldd	r10, Y+17	; 0x11
     442:	ba 88       	ldd	r11, Y+18	; 0x12
     444:	cb 88       	ldd	r12, Y+19	; 0x13
     446:	d4 2c       	mov	r13, r4
     448:	e5 2c       	mov	r14, r5
     44a:	fc 88       	ldd	r15, Y+20	; 0x14
     44c:	03 2d       	mov	r16, r3
     44e:	12 2d       	mov	r17, r2
     450:	0e 94 27 11 	call	0x224e	; 0x224e <__divdi3>
     454:	29 83       	std	Y+1, r18	; 0x01
     456:	3a 83       	std	Y+2, r19	; 0x02
     458:	4b 83       	std	Y+3, r20	; 0x03
     45a:	5c 83       	std	Y+4, r21	; 0x04
     45c:	6d 83       	std	Y+5, r22	; 0x05
     45e:	7e 83       	std	Y+6, r23	; 0x06
     460:	8f 83       	std	Y+7, r24	; 0x07
     462:	98 87       	std	Y+8, r25	; 0x08
     464:	0d e0       	ldi	r16, 0x0D	; 13
     466:	0e 94 15 12 	call	0x242a	; 0x242a <__ashrdi3>
     46a:	82 2e       	mov	r8, r18
     46c:	93 2e       	mov	r9, r19
     46e:	74 2e       	mov	r7, r20
     470:	65 2e       	mov	r6, r21
     472:	56 2e       	mov	r5, r22
     474:	47 2e       	mov	r4, r23
     476:	38 2e       	mov	r3, r24
     478:	29 2e       	mov	r2, r25
     47a:	af 8d       	ldd	r26, Y+31	; 0x1f
     47c:	b8 a1       	ldd	r27, Y+32	; 0x20
     47e:	d7 96       	adiw	r26, 0x37	; 55
     480:	3c 91       	ld	r19, X
     482:	d7 97       	sbiw	r26, 0x37	; 55
     484:	d6 96       	adiw	r26, 0x36	; 54
     486:	2c 91       	ld	r18, X
     488:	93 2f       	mov	r25, r19
     48a:	99 0f       	add	r25, r25
     48c:	99 0b       	sbc	r25, r25
     48e:	a8 2c       	mov	r10, r8
     490:	b9 2c       	mov	r11, r9
     492:	c7 2c       	mov	r12, r7
     494:	d6 2c       	mov	r13, r6
     496:	e5 2c       	mov	r14, r5
     498:	f4 2c       	mov	r15, r4
     49a:	03 2d       	mov	r16, r3
     49c:	12 2d       	mov	r17, r2
     49e:	49 2f       	mov	r20, r25
     4a0:	59 2f       	mov	r21, r25
     4a2:	69 2f       	mov	r22, r25
     4a4:	79 2f       	mov	r23, r25
     4a6:	89 2f       	mov	r24, r25
     4a8:	0e 94 cc 10 	call	0x2198	; 0x2198 <__muldi3>
     4ac:	a2 2e       	mov	r10, r18
     4ae:	b3 2e       	mov	r11, r19
     4b0:	c4 2e       	mov	r12, r20
     4b2:	d5 2e       	mov	r13, r21
     4b4:	e6 2e       	mov	r14, r22
     4b6:	f7 2e       	mov	r15, r23
     4b8:	08 2f       	mov	r16, r24
     4ba:	19 2f       	mov	r17, r25
     4bc:	28 2d       	mov	r18, r8
     4be:	39 2d       	mov	r19, r9
     4c0:	47 2d       	mov	r20, r7
     4c2:	56 2d       	mov	r21, r6
     4c4:	65 2d       	mov	r22, r5
     4c6:	74 2d       	mov	r23, r4
     4c8:	83 2d       	mov	r24, r3
     4ca:	92 2d       	mov	r25, r2
     4cc:	0e 94 cc 10 	call	0x2198	; 0x2198 <__muldi3>
     4d0:	09 e1       	ldi	r16, 0x19	; 25
     4d2:	0e 94 15 12 	call	0x242a	; 0x242a <__ashrdi3>
     4d6:	a2 2e       	mov	r10, r18
     4d8:	b3 2e       	mov	r11, r19
     4da:	c4 2e       	mov	r12, r20
     4dc:	d5 2e       	mov	r13, r21
     4de:	e6 2e       	mov	r14, r22
     4e0:	f7 2e       	mov	r15, r23
     4e2:	08 2f       	mov	r16, r24
     4e4:	19 2f       	mov	r17, r25
     4e6:	29 81       	ldd	r18, Y+1	; 0x01
     4e8:	3a 81       	ldd	r19, Y+2	; 0x02
     4ea:	4b 81       	ldd	r20, Y+3	; 0x03
     4ec:	5c 81       	ldd	r21, Y+4	; 0x04
     4ee:	6d 81       	ldd	r22, Y+5	; 0x05
     4f0:	7e 81       	ldd	r23, Y+6	; 0x06
     4f2:	8f 81       	ldd	r24, Y+7	; 0x07
     4f4:	98 85       	ldd	r25, Y+8	; 0x08
     4f6:	0e 94 33 12 	call	0x2466	; 0x2466 <__adddi3>
     4fa:	22 2e       	mov	r2, r18
     4fc:	33 2e       	mov	r3, r19
     4fe:	44 2e       	mov	r4, r20
     500:	55 2e       	mov	r5, r21
     502:	66 2e       	mov	r6, r22
     504:	77 2e       	mov	r7, r23
     506:	88 2e       	mov	r8, r24
     508:	99 2e       	mov	r9, r25
     50a:	ef 8d       	ldd	r30, Y+31	; 0x1f
     50c:	f8 a1       	ldd	r31, Y+32	; 0x20
     50e:	35 a9       	ldd	r19, Z+53	; 0x35
     510:	24 a9       	ldd	r18, Z+52	; 0x34
     512:	93 2f       	mov	r25, r19
     514:	99 0f       	add	r25, r25
     516:	99 0b       	sbc	r25, r25
     518:	a9 80       	ldd	r10, Y+1	; 0x01
     51a:	ba 80       	ldd	r11, Y+2	; 0x02
     51c:	cb 80       	ldd	r12, Y+3	; 0x03
     51e:	dc 80       	ldd	r13, Y+4	; 0x04
     520:	ed 80       	ldd	r14, Y+5	; 0x05
     522:	fe 80       	ldd	r15, Y+6	; 0x06
     524:	0f 81       	ldd	r16, Y+7	; 0x07
     526:	18 85       	ldd	r17, Y+8	; 0x08
     528:	49 2f       	mov	r20, r25
     52a:	59 2f       	mov	r21, r25
     52c:	69 2f       	mov	r22, r25
     52e:	79 2f       	mov	r23, r25
     530:	89 2f       	mov	r24, r25
     532:	0e 94 cc 10 	call	0x2198	; 0x2198 <__muldi3>
     536:	03 e1       	ldi	r16, 0x13	; 19
     538:	0e 94 15 12 	call	0x242a	; 0x242a <__ashrdi3>
     53c:	a2 2e       	mov	r10, r18
     53e:	b3 2e       	mov	r11, r19
     540:	c4 2e       	mov	r12, r20
     542:	d5 2e       	mov	r13, r21
     544:	e6 2e       	mov	r14, r22
     546:	f7 2e       	mov	r15, r23
     548:	08 2f       	mov	r16, r24
     54a:	19 2f       	mov	r17, r25
     54c:	22 2d       	mov	r18, r2
     54e:	33 2d       	mov	r19, r3
     550:	44 2d       	mov	r20, r4
     552:	55 2d       	mov	r21, r5
     554:	66 2d       	mov	r22, r6
     556:	77 2d       	mov	r23, r7
     558:	88 2d       	mov	r24, r8
     55a:	99 2d       	mov	r25, r9
     55c:	0e 94 33 12 	call	0x2466	; 0x2466 <__adddi3>
     560:	08 e0       	ldi	r16, 0x08	; 8
     562:	0e 94 15 12 	call	0x242a	; 0x242a <__ashrdi3>
     566:	52 2e       	mov	r5, r18
     568:	63 2e       	mov	r6, r19
     56a:	74 2e       	mov	r7, r20
     56c:	85 2e       	mov	r8, r21
     56e:	96 2e       	mov	r9, r22
     570:	f7 2f       	mov	r31, r23
     572:	e8 2f       	mov	r30, r24
     574:	49 2e       	mov	r4, r25
     576:	af 8d       	ldd	r26, Y+31	; 0x1f
     578:	b8 a1       	ldd	r27, Y+32	; 0x20
     57a:	d3 96       	adiw	r26, 0x33	; 51
     57c:	3c 91       	ld	r19, X
     57e:	d3 97       	sbiw	r26, 0x33	; 51
     580:	d2 96       	adiw	r26, 0x32	; 50
     582:	2c 91       	ld	r18, X
     584:	93 2f       	mov	r25, r19
     586:	99 0f       	add	r25, r25
     588:	99 0b       	sbc	r25, r25
     58a:	49 2f       	mov	r20, r25
     58c:	59 2f       	mov	r21, r25
     58e:	69 2f       	mov	r22, r25
     590:	79 2f       	mov	r23, r25
     592:	89 2f       	mov	r24, r25
     594:	04 e0       	ldi	r16, 0x04	; 4
     596:	0e 94 fc 11 	call	0x23f8	; 0x23f8 <__ashldi3>
     59a:	a2 2e       	mov	r10, r18
     59c:	b3 2e       	mov	r11, r19
     59e:	c4 2e       	mov	r12, r20
     5a0:	d5 2e       	mov	r13, r21
     5a2:	e6 2e       	mov	r14, r22
     5a4:	f7 2e       	mov	r15, r23
     5a6:	08 2f       	mov	r16, r24
     5a8:	19 2f       	mov	r17, r25
     5aa:	25 2d       	mov	r18, r5
     5ac:	36 2d       	mov	r19, r6
     5ae:	47 2d       	mov	r20, r7
     5b0:	58 2d       	mov	r21, r8
     5b2:	69 2d       	mov	r22, r9
     5b4:	7f 2f       	mov	r23, r31
     5b6:	8e 2f       	mov	r24, r30
     5b8:	94 2d       	mov	r25, r4
     5ba:	0e 94 33 12 	call	0x2466	; 0x2466 <__adddi3>
     5be:	08 e0       	ldi	r16, 0x08	; 8
     5c0:	0e 94 15 12 	call	0x242a	; 0x242a <__ashrdi3>
     5c4:	62 2f       	mov	r22, r18
     5c6:	73 2f       	mov	r23, r19
     5c8:	84 2f       	mov	r24, r20
     5ca:	95 2f       	mov	r25, r21
     5cc:	04 c0       	rjmp	.+8      	; 0x5d6 <_ZN6BME28016convert_pressureEv+0x4f2>
     5ce:	60 e0       	ldi	r22, 0x00	; 0
     5d0:	70 e0       	ldi	r23, 0x00	; 0
     5d2:	80 e0       	ldi	r24, 0x00	; 0
     5d4:	90 e0       	ldi	r25, 0x00	; 0
     5d6:	a0 96       	adiw	r28, 0x20	; 32
     5d8:	0f b6       	in	r0, 0x3f	; 63
     5da:	f8 94       	cli
     5dc:	de bf       	out	0x3e, r29	; 62
     5de:	0f be       	out	0x3f, r0	; 63
     5e0:	cd bf       	out	0x3d, r28	; 61
     5e2:	df 91       	pop	r29
     5e4:	cf 91       	pop	r28
     5e6:	1f 91       	pop	r17
     5e8:	0f 91       	pop	r16
     5ea:	ff 90       	pop	r15
     5ec:	ef 90       	pop	r14
     5ee:	df 90       	pop	r13
     5f0:	cf 90       	pop	r12
     5f2:	bf 90       	pop	r11
     5f4:	af 90       	pop	r10
     5f6:	9f 90       	pop	r9
     5f8:	8f 90       	pop	r8
     5fa:	7f 90       	pop	r7
     5fc:	6f 90       	pop	r6
     5fe:	5f 90       	pop	r5
     600:	4f 90       	pop	r4
     602:	3f 90       	pop	r3
     604:	2f 90       	pop	r2
     606:	08 95       	ret

00000608 <_ZN6BME28019convert_temperatureEv>:
     608:	8f 92       	push	r8
     60a:	9f 92       	push	r9
     60c:	af 92       	push	r10
     60e:	bf 92       	push	r11
     610:	cf 92       	push	r12
     612:	df 92       	push	r13
     614:	ef 92       	push	r14
     616:	ff 92       	push	r15
     618:	0f 93       	push	r16
     61a:	1f 93       	push	r17
     61c:	fc 01       	movw	r30, r24
     61e:	10 8e       	std	Z+24, r1	; 0x18
     620:	11 8e       	std	Z+25, r1	; 0x19
     622:	12 8e       	std	Z+26, r1	; 0x1a
     624:	13 8e       	std	Z+27, r1	; 0x1b
     626:	84 85       	ldd	r24, Z+12	; 0x0c
     628:	95 85       	ldd	r25, Z+13	; 0x0d
     62a:	a6 85       	ldd	r26, Z+14	; 0x0e
     62c:	b7 85       	ldd	r27, Z+15	; 0x0f
     62e:	40 a1       	ldd	r20, Z+32	; 0x20
     630:	51 a1       	ldd	r21, Z+33	; 0x21
     632:	60 e0       	ldi	r22, 0x00	; 0
     634:	70 e0       	ldi	r23, 0x00	; 0
     636:	4c 01       	movw	r8, r24
     638:	5d 01       	movw	r10, r26
     63a:	68 94       	set
     63c:	13 f8       	bld	r1, 3
     63e:	b5 94       	asr	r11
     640:	a7 94       	ror	r10
     642:	97 94       	ror	r9
     644:	87 94       	ror	r8
     646:	16 94       	lsr	r1
     648:	d1 f7       	brne	.-12     	; 0x63e <_ZN6BME28019convert_temperatureEv+0x36>
     64a:	84 1a       	sub	r8, r20
     64c:	95 0a       	sbc	r9, r21
     64e:	a6 0a       	sbc	r10, r22
     650:	b7 0a       	sbc	r11, r23
     652:	68 94       	set
     654:	12 f8       	bld	r1, 2
     656:	b5 95       	asr	r27
     658:	a7 95       	ror	r26
     65a:	97 95       	ror	r25
     65c:	87 95       	ror	r24
     65e:	16 94       	lsr	r1
     660:	d1 f7       	brne	.-12     	; 0x656 <_ZN6BME28019convert_temperatureEv+0x4e>
     662:	44 0f       	add	r20, r20
     664:	55 1f       	adc	r21, r21
     666:	66 1f       	adc	r22, r22
     668:	77 1f       	adc	r23, r23
     66a:	7c 01       	movw	r14, r24
     66c:	8d 01       	movw	r16, r26
     66e:	e4 1a       	sub	r14, r20
     670:	f5 0a       	sbc	r15, r21
     672:	06 0b       	sbc	r16, r22
     674:	17 0b       	sbc	r17, r23
     676:	a8 01       	movw	r20, r16
     678:	97 01       	movw	r18, r14
     67a:	a2 a1       	ldd	r26, Z+34	; 0x22
     67c:	b3 a1       	ldd	r27, Z+35	; 0x23
     67e:	0e 94 c4 10 	call	0x2188	; 0x2188 <__mulshisi3>
     682:	6b 01       	movw	r12, r22
     684:	7c 01       	movw	r14, r24
     686:	0b 2e       	mov	r0, r27
     688:	bb e0       	ldi	r27, 0x0B	; 11
     68a:	f5 94       	asr	r15
     68c:	e7 94       	ror	r14
     68e:	d7 94       	ror	r13
     690:	c7 94       	ror	r12
     692:	ba 95       	dec	r27
     694:	d1 f7       	brne	.-12     	; 0x68a <_ZN6BME28019convert_temperatureEv+0x82>
     696:	b0 2d       	mov	r27, r0
     698:	a5 01       	movw	r20, r10
     69a:	94 01       	movw	r18, r8
     69c:	c5 01       	movw	r24, r10
     69e:	b4 01       	movw	r22, r8
     6a0:	0e 94 54 10 	call	0x20a8	; 0x20a8 <__mulsi3>
     6a4:	9b 01       	movw	r18, r22
     6a6:	ac 01       	movw	r20, r24
     6a8:	01 2e       	mov	r0, r17
     6aa:	1c e0       	ldi	r17, 0x0C	; 12
     6ac:	55 95       	asr	r21
     6ae:	47 95       	ror	r20
     6b0:	37 95       	ror	r19
     6b2:	27 95       	ror	r18
     6b4:	1a 95       	dec	r17
     6b6:	d1 f7       	brne	.-12     	; 0x6ac <_ZN6BME28019convert_temperatureEv+0xa4>
     6b8:	10 2d       	mov	r17, r0
     6ba:	a4 a1       	ldd	r26, Z+36	; 0x24
     6bc:	b5 a1       	ldd	r27, Z+37	; 0x25
     6be:	0e 94 c4 10 	call	0x2188	; 0x2188 <__mulshisi3>
     6c2:	ab 01       	movw	r20, r22
     6c4:	bc 01       	movw	r22, r24
     6c6:	03 2e       	mov	r0, r19
     6c8:	3e e0       	ldi	r19, 0x0E	; 14
     6ca:	75 95       	asr	r23
     6cc:	67 95       	ror	r22
     6ce:	57 95       	ror	r21
     6d0:	47 95       	ror	r20
     6d2:	3a 95       	dec	r19
     6d4:	d1 f7       	brne	.-12     	; 0x6ca <_ZN6BME28019convert_temperatureEv+0xc2>
     6d6:	30 2d       	mov	r19, r0
     6d8:	4c 0d       	add	r20, r12
     6da:	5d 1d       	adc	r21, r13
     6dc:	6e 1d       	adc	r22, r14
     6de:	7f 1d       	adc	r23, r15
     6e0:	df 01       	movw	r26, r30
     6e2:	af 5b       	subi	r26, 0xBF	; 191
     6e4:	bf 4f       	sbci	r27, 0xFF	; 255
     6e6:	4d 93       	st	X+, r20
     6e8:	5d 93       	st	X+, r21
     6ea:	6d 93       	st	X+, r22
     6ec:	7c 93       	st	X, r23
     6ee:	13 97       	sbiw	r26, 0x03	; 3
     6f0:	6a 01       	movw	r12, r20
     6f2:	7b 01       	movw	r14, r22
     6f4:	cc 0c       	add	r12, r12
     6f6:	dd 1c       	adc	r13, r13
     6f8:	ee 1c       	adc	r14, r14
     6fa:	ff 1c       	adc	r15, r15
     6fc:	cc 0c       	add	r12, r12
     6fe:	dd 1c       	adc	r13, r13
     700:	ee 1c       	adc	r14, r14
     702:	ff 1c       	adc	r15, r15
     704:	d7 01       	movw	r26, r14
     706:	c6 01       	movw	r24, r12
     708:	84 0f       	add	r24, r20
     70a:	95 1f       	adc	r25, r21
     70c:	a6 1f       	adc	r26, r22
     70e:	b7 1f       	adc	r27, r23
     710:	80 58       	subi	r24, 0x80	; 128
     712:	9f 4f       	sbci	r25, 0xFF	; 255
     714:	af 4f       	sbci	r26, 0xFF	; 255
     716:	bf 4f       	sbci	r27, 0xFF	; 255
     718:	89 2f       	mov	r24, r25
     71a:	9a 2f       	mov	r25, r26
     71c:	ab 2f       	mov	r26, r27
     71e:	bb 27       	eor	r27, r27
     720:	a7 fd       	sbrc	r26, 7
     722:	ba 95       	dec	r27
     724:	c4 80       	ldd	r12, Z+4	; 0x04
     726:	d5 80       	ldd	r13, Z+5	; 0x05
     728:	e6 80       	ldd	r14, Z+6	; 0x06
     72a:	f7 80       	ldd	r15, Z+7	; 0x07
     72c:	bc 01       	movw	r22, r24
     72e:	cd 01       	movw	r24, r26
     730:	6c 19       	sub	r22, r12
     732:	7d 09       	sbc	r23, r13
     734:	8e 09       	sbc	r24, r14
     736:	9f 09       	sbc	r25, r15
     738:	1f 91       	pop	r17
     73a:	0f 91       	pop	r16
     73c:	ff 90       	pop	r15
     73e:	ef 90       	pop	r14
     740:	df 90       	pop	r13
     742:	cf 90       	pop	r12
     744:	bf 90       	pop	r11
     746:	af 90       	pop	r10
     748:	9f 90       	pop	r9
     74a:	8f 90       	pop	r8
     74c:	08 95       	ret

0000074e <_ZN6BME28016convert_humidityEv>:
     74e:	4f 92       	push	r4
     750:	5f 92       	push	r5
     752:	6f 92       	push	r6
     754:	7f 92       	push	r7
     756:	8f 92       	push	r8
     758:	9f 92       	push	r9
     75a:	af 92       	push	r10
     75c:	bf 92       	push	r11
     75e:	cf 92       	push	r12
     760:	df 92       	push	r13
     762:	ef 92       	push	r14
     764:	ff 92       	push	r15
     766:	fc 01       	movw	r30, r24
     768:	dc 01       	movw	r26, r24
     76a:	af 5b       	subi	r26, 0xBF	; 191
     76c:	bf 4f       	sbci	r27, 0xFF	; 255
     76e:	8d 90       	ld	r8, X+
     770:	9d 90       	ld	r9, X+
     772:	ad 90       	ld	r10, X+
     774:	bc 90       	ld	r11, X
     776:	2c e2       	ldi	r18, 0x2C	; 44
     778:	92 1a       	sub	r9, r18
     77a:	21 e0       	ldi	r18, 0x01	; 1
     77c:	a2 0a       	sbc	r10, r18
     77e:	b1 08       	sbc	r11, r1
     780:	c0 88       	ldd	r12, Z+16	; 0x10
     782:	d1 88       	ldd	r13, Z+17	; 0x11
     784:	e2 88       	ldd	r14, Z+18	; 0x12
     786:	f3 88       	ldd	r15, Z+19	; 0x13
     788:	0b 2e       	mov	r0, r27
     78a:	be e0       	ldi	r27, 0x0E	; 14
     78c:	cc 0c       	add	r12, r12
     78e:	dd 1c       	adc	r13, r13
     790:	ee 1c       	adc	r14, r14
     792:	ff 1c       	adc	r15, r15
     794:	ba 95       	dec	r27
     796:	d1 f7       	brne	.-12     	; 0x78c <_ZN6BME28016convert_humidityEv+0x3e>
     798:	b0 2d       	mov	r27, r0
     79a:	84 ad       	ldd	r24, Z+60	; 0x3c
     79c:	95 ad       	ldd	r25, Z+61	; 0x3d
     79e:	09 2e       	mov	r0, r25
     7a0:	00 0c       	add	r0, r0
     7a2:	aa 0b       	sbc	r26, r26
     7a4:	bb 0b       	sbc	r27, r27
     7a6:	07 2e       	mov	r0, r23
     7a8:	74 e1       	ldi	r23, 0x14	; 20
     7aa:	88 0f       	add	r24, r24
     7ac:	99 1f       	adc	r25, r25
     7ae:	aa 1f       	adc	r26, r26
     7b0:	bb 1f       	adc	r27, r27
     7b2:	7a 95       	dec	r23
     7b4:	d1 f7       	brne	.-12     	; 0x7aa <_ZN6BME28016convert_humidityEv+0x5c>
     7b6:	70 2d       	mov	r23, r0
     7b8:	c8 1a       	sub	r12, r24
     7ba:	d9 0a       	sbc	r13, r25
     7bc:	ea 0a       	sbc	r14, r26
     7be:	fb 0a       	sbc	r15, r27
     7c0:	a6 ad       	ldd	r26, Z+62	; 0x3e
     7c2:	b7 ad       	ldd	r27, Z+63	; 0x3f
     7c4:	a5 01       	movw	r20, r10
     7c6:	94 01       	movw	r18, r8
     7c8:	0e 94 c4 10 	call	0x2188	; 0x2188 <__mulshisi3>
     7cc:	c6 1a       	sub	r12, r22
     7ce:	d7 0a       	sbc	r13, r23
     7d0:	e8 0a       	sbc	r14, r24
     7d2:	f9 0a       	sbc	r15, r25
     7d4:	30 e4       	ldi	r19, 0x40	; 64
     7d6:	d3 0e       	add	r13, r19
     7d8:	e1 1c       	adc	r14, r1
     7da:	f1 1c       	adc	r15, r1
     7dc:	0b 2e       	mov	r0, r27
     7de:	bf e0       	ldi	r27, 0x0F	; 15
     7e0:	f5 94       	asr	r15
     7e2:	e7 94       	ror	r14
     7e4:	d7 94       	ror	r13
     7e6:	c7 94       	ror	r12
     7e8:	ba 95       	dec	r27
     7ea:	d1 f7       	brne	.-12     	; 0x7e0 <_ZN6BME28016convert_humidityEv+0x92>
     7ec:	b0 2d       	mov	r27, r0
     7ee:	df 01       	movw	r26, r30
     7f0:	a0 5c       	subi	r26, 0xC0	; 192
     7f2:	bf 4f       	sbci	r27, 0xFF	; 255
     7f4:	ac 91       	ld	r26, X
     7f6:	0a 2e       	mov	r0, r26
     7f8:	00 0c       	add	r0, r0
     7fa:	bb 0b       	sbc	r27, r27
     7fc:	a5 01       	movw	r20, r10
     7fe:	94 01       	movw	r18, r8
     800:	0e 94 c4 10 	call	0x2188	; 0x2188 <__mulshisi3>
     804:	2b 01       	movw	r4, r22
     806:	3c 01       	movw	r6, r24
     808:	03 2e       	mov	r0, r19
     80a:	3a e0       	ldi	r19, 0x0A	; 10
     80c:	75 94       	asr	r7
     80e:	67 94       	ror	r6
     810:	57 94       	ror	r5
     812:	47 94       	ror	r4
     814:	3a 95       	dec	r19
     816:	d1 f7       	brne	.-12     	; 0x80c <_ZN6BME28016convert_humidityEv+0xbe>
     818:	30 2d       	mov	r19, r0
     81a:	a3 ad       	ldd	r26, Z+59	; 0x3b
     81c:	b0 e0       	ldi	r27, 0x00	; 0
     81e:	0e 94 b9 10 	call	0x2172	; 0x2172 <__muluhisi3>
     822:	dc 01       	movw	r26, r24
     824:	cb 01       	movw	r24, r22
     826:	07 2e       	mov	r0, r23
     828:	7b e0       	ldi	r23, 0x0B	; 11
     82a:	b5 95       	asr	r27
     82c:	a7 95       	ror	r26
     82e:	97 95       	ror	r25
     830:	87 95       	ror	r24
     832:	7a 95       	dec	r23
     834:	d1 f7       	brne	.-12     	; 0x82a <_ZN6BME28016convert_humidityEv+0xdc>
     836:	70 2d       	mov	r23, r0
     838:	bc 01       	movw	r22, r24
     83a:	cd 01       	movw	r24, r26
     83c:	70 58       	subi	r23, 0x80	; 128
     83e:	8f 4f       	sbci	r24, 0xFF	; 255
     840:	9f 4f       	sbci	r25, 0xFF	; 255
     842:	a3 01       	movw	r20, r6
     844:	92 01       	movw	r18, r4
     846:	0e 94 54 10 	call	0x20a8	; 0x20a8 <__mulsi3>
     84a:	dc 01       	movw	r26, r24
     84c:	cb 01       	movw	r24, r22
     84e:	07 2e       	mov	r0, r23
     850:	7a e0       	ldi	r23, 0x0A	; 10
     852:	b5 95       	asr	r27
     854:	a7 95       	ror	r26
     856:	97 95       	ror	r25
     858:	87 95       	ror	r24
     85a:	7a 95       	dec	r23
     85c:	d1 f7       	brne	.-12     	; 0x852 <_ZN6BME28016convert_humidityEv+0x104>
     85e:	70 2d       	mov	r23, r0
     860:	9c 01       	movw	r18, r24
     862:	ad 01       	movw	r20, r26
     864:	40 5e       	subi	r20, 0xE0	; 224
     866:	5f 4f       	sbci	r21, 0xFF	; 255
     868:	a1 ad       	ldd	r26, Z+57	; 0x39
     86a:	b2 ad       	ldd	r27, Z+58	; 0x3a
     86c:	0e 94 c4 10 	call	0x2188	; 0x2188 <__mulshisi3>
     870:	dc 01       	movw	r26, r24
     872:	cb 01       	movw	r24, r22
     874:	90 5e       	subi	r25, 0xE0	; 224
     876:	af 4f       	sbci	r26, 0xFF	; 255
     878:	bf 4f       	sbci	r27, 0xFF	; 255
     87a:	bc 01       	movw	r22, r24
     87c:	cd 01       	movw	r24, r26
     87e:	05 2e       	mov	r0, r21
     880:	5e e0       	ldi	r21, 0x0E	; 14
     882:	95 95       	asr	r25
     884:	87 95       	ror	r24
     886:	77 95       	ror	r23
     888:	67 95       	ror	r22
     88a:	5a 95       	dec	r21
     88c:	d1 f7       	brne	.-12     	; 0x882 <_ZN6BME28016convert_humidityEv+0x134>
     88e:	50 2d       	mov	r21, r0
     890:	a7 01       	movw	r20, r14
     892:	96 01       	movw	r18, r12
     894:	0e 94 54 10 	call	0x20a8	; 0x20a8 <__mulsi3>
     898:	6b 01       	movw	r12, r22
     89a:	7c 01       	movw	r14, r24
     89c:	05 2e       	mov	r0, r21
     89e:	5f e0       	ldi	r21, 0x0F	; 15
     8a0:	95 95       	asr	r25
     8a2:	87 95       	ror	r24
     8a4:	77 95       	ror	r23
     8a6:	67 95       	ror	r22
     8a8:	5a 95       	dec	r21
     8aa:	d1 f7       	brne	.-12     	; 0x8a0 <_ZN6BME28016convert_humidityEv+0x152>
     8ac:	50 2d       	mov	r21, r0
     8ae:	9b 01       	movw	r18, r22
     8b0:	ac 01       	movw	r20, r24
     8b2:	0e 94 54 10 	call	0x20a8	; 0x20a8 <__mulsi3>
     8b6:	9b 01       	movw	r18, r22
     8b8:	ac 01       	movw	r20, r24
     8ba:	68 94       	set
     8bc:	16 f8       	bld	r1, 6
     8be:	55 95       	asr	r21
     8c0:	47 95       	ror	r20
     8c2:	37 95       	ror	r19
     8c4:	27 95       	ror	r18
     8c6:	16 94       	lsr	r1
     8c8:	d1 f7       	brne	.-12     	; 0x8be <_ZN6BME28016convert_humidityEv+0x170>
     8ca:	a0 ad       	ldd	r26, Z+56	; 0x38
     8cc:	b0 e0       	ldi	r27, 0x00	; 0
     8ce:	0e 94 b9 10 	call	0x2172	; 0x2172 <__muluhisi3>
     8d2:	dc 01       	movw	r26, r24
     8d4:	cb 01       	movw	r24, r22
     8d6:	68 94       	set
     8d8:	13 f8       	bld	r1, 3
     8da:	b5 95       	asr	r27
     8dc:	a7 95       	ror	r26
     8de:	97 95       	ror	r25
     8e0:	87 95       	ror	r24
     8e2:	16 94       	lsr	r1
     8e4:	d1 f7       	brne	.-12     	; 0x8da <_ZN6BME28016convert_humidityEv+0x18c>
     8e6:	a7 01       	movw	r20, r14
     8e8:	96 01       	movw	r18, r12
     8ea:	28 1b       	sub	r18, r24
     8ec:	39 0b       	sbc	r19, r25
     8ee:	4a 0b       	sbc	r20, r26
     8f0:	5b 0b       	sbc	r21, r27
     8f2:	da 01       	movw	r26, r20
     8f4:	c9 01       	movw	r24, r18
     8f6:	1a f4       	brpl	.+6      	; 0x8fe <_ZN6BME28016convert_humidityEv+0x1b0>
     8f8:	80 e0       	ldi	r24, 0x00	; 0
     8fa:	90 e0       	ldi	r25, 0x00	; 0
     8fc:	dc 01       	movw	r26, r24
     8fe:	81 30       	cpi	r24, 0x01	; 1
     900:	91 05       	cpc	r25, r1
     902:	a1 05       	cpc	r26, r1
     904:	39 e1       	ldi	r19, 0x19	; 25
     906:	b3 07       	cpc	r27, r19
     908:	24 f0       	brlt	.+8      	; 0x912 <__stack+0x13>
     90a:	80 e0       	ldi	r24, 0x00	; 0
     90c:	90 e0       	ldi	r25, 0x00	; 0
     90e:	a0 e0       	ldi	r26, 0x00	; 0
     910:	b9 e1       	ldi	r27, 0x19	; 25
     912:	bc 01       	movw	r22, r24
     914:	cd 01       	movw	r24, r26
     916:	05 2e       	mov	r0, r21
     918:	5c e0       	ldi	r21, 0x0C	; 12
     91a:	95 95       	asr	r25
     91c:	87 95       	ror	r24
     91e:	77 95       	ror	r23
     920:	67 95       	ror	r22
     922:	5a 95       	dec	r21
     924:	d1 f7       	brne	.-12     	; 0x91a <__stack+0x1b>
     926:	50 2d       	mov	r21, r0
     928:	ff 90       	pop	r15
     92a:	ef 90       	pop	r14
     92c:	df 90       	pop	r13
     92e:	cf 90       	pop	r12
     930:	bf 90       	pop	r11
     932:	af 90       	pop	r10
     934:	9f 90       	pop	r9
     936:	8f 90       	pop	r8
     938:	7f 90       	pop	r7
     93a:	6f 90       	pop	r6
     93c:	5f 90       	pop	r5
     93e:	4f 90       	pop	r4
     940:	08 95       	ret

00000942 <_ZN6BME2809read_dataEv>:
     942:	df 92       	push	r13
     944:	ef 92       	push	r14
     946:	ff 92       	push	r15
     948:	0f 93       	push	r16
     94a:	1f 93       	push	r17
     94c:	cf 93       	push	r28
     94e:	df 93       	push	r29
     950:	cd b7       	in	r28, 0x3d	; 61
     952:	de b7       	in	r29, 0x3e	; 62
     954:	28 97       	sbiw	r28, 0x08	; 8
     956:	0f b6       	in	r0, 0x3f	; 63
     958:	f8 94       	cli
     95a:	de bf       	out	0x3e, r29	; 62
     95c:	0f be       	out	0x3f, r0	; 63
     95e:	cd bf       	out	0x3d, r28	; 61
     960:	7c 01       	movw	r14, r24
     962:	08 e0       	ldi	r16, 0x08	; 8
     964:	9e 01       	movw	r18, r28
     966:	2f 5f       	subi	r18, 0xFF	; 255
     968:	3f 4f       	sbci	r19, 0xFF	; 255
     96a:	47 ef       	ldi	r20, 0xF7	; 247
     96c:	6e ee       	ldi	r22, 0xEE	; 238
     96e:	fc 01       	movw	r30, r24
     970:	80 81       	ld	r24, Z
     972:	91 81       	ldd	r25, Z+1	; 0x01
     974:	0e 94 08 09 	call	0x1210	; 0x1210 <_ZN3i2c4readEhhPhh>
     978:	d8 2e       	mov	r13, r24
     97a:	88 23       	and	r24, r24
     97c:	89 f0       	breq	.+34     	; 0x9a0 <_ZN6BME2809read_dataEv+0x5e>
     97e:	82 e3       	ldi	r24, 0x32	; 50
     980:	e2 e3       	ldi	r30, 0x32	; 50
     982:	f1 e0       	ldi	r31, 0x01	; 1
     984:	a7 ec       	ldi	r26, 0xC7	; 199
     986:	b5 e0       	ldi	r27, 0x05	; 5
     988:	01 90       	ld	r0, Z+
     98a:	0d 92       	st	X+, r0
     98c:	8a 95       	dec	r24
     98e:	e1 f7       	brne	.-8      	; 0x988 <_ZN6BME2809read_dataEv+0x46>
     990:	67 ec       	ldi	r22, 0xC7	; 199
     992:	75 e0       	ldi	r23, 0x05	; 5
     994:	f7 01       	movw	r30, r14
     996:	82 81       	ldd	r24, Z+2	; 0x02
     998:	93 81       	ldd	r25, Z+3	; 0x03
     99a:	0e 94 ff 0e 	call	0x1dfe	; 0x1dfe <_ZN6serial4sendEPc>
     99e:	81 c0       	rjmp	.+258    	; 0xaa2 <_ZN6BME2809read_dataEv+0x160>
     9a0:	8a 81       	ldd	r24, Y+2	; 0x02
     9a2:	90 e0       	ldi	r25, 0x00	; 0
     9a4:	a0 e0       	ldi	r26, 0x00	; 0
     9a6:	b0 e0       	ldi	r27, 0x00	; 0
     9a8:	88 0f       	add	r24, r24
     9aa:	99 1f       	adc	r25, r25
     9ac:	aa 1f       	adc	r26, r26
     9ae:	bb 1f       	adc	r27, r27
     9b0:	88 0f       	add	r24, r24
     9b2:	99 1f       	adc	r25, r25
     9b4:	aa 1f       	adc	r26, r26
     9b6:	bb 1f       	adc	r27, r27
     9b8:	88 0f       	add	r24, r24
     9ba:	99 1f       	adc	r25, r25
     9bc:	aa 1f       	adc	r26, r26
     9be:	bb 1f       	adc	r27, r27
     9c0:	88 0f       	add	r24, r24
     9c2:	99 1f       	adc	r25, r25
     9c4:	aa 1f       	adc	r26, r26
     9c6:	bb 1f       	adc	r27, r27
     9c8:	49 81       	ldd	r20, Y+1	; 0x01
     9ca:	50 e0       	ldi	r21, 0x00	; 0
     9cc:	60 e0       	ldi	r22, 0x00	; 0
     9ce:	70 e0       	ldi	r23, 0x00	; 0
     9d0:	03 2e       	mov	r0, r19
     9d2:	3c e0       	ldi	r19, 0x0C	; 12
     9d4:	44 0f       	add	r20, r20
     9d6:	55 1f       	adc	r21, r21
     9d8:	66 1f       	adc	r22, r22
     9da:	77 1f       	adc	r23, r23
     9dc:	3a 95       	dec	r19
     9de:	d1 f7       	brne	.-12     	; 0x9d4 <_ZN6BME2809read_dataEv+0x92>
     9e0:	30 2d       	mov	r19, r0
     9e2:	84 2b       	or	r24, r20
     9e4:	95 2b       	or	r25, r21
     9e6:	a6 2b       	or	r26, r22
     9e8:	b7 2b       	or	r27, r23
     9ea:	2b 81       	ldd	r18, Y+3	; 0x03
     9ec:	22 95       	swap	r18
     9ee:	2f 70       	andi	r18, 0x0F	; 15
     9f0:	82 2b       	or	r24, r18
     9f2:	f7 01       	movw	r30, r14
     9f4:	80 87       	std	Z+8, r24	; 0x08
     9f6:	91 87       	std	Z+9, r25	; 0x09
     9f8:	a2 87       	std	Z+10, r26	; 0x0a
     9fa:	b3 87       	std	Z+11, r27	; 0x0b
     9fc:	4d 81       	ldd	r20, Y+5	; 0x05
     9fe:	50 e0       	ldi	r21, 0x00	; 0
     a00:	60 e0       	ldi	r22, 0x00	; 0
     a02:	70 e0       	ldi	r23, 0x00	; 0
     a04:	44 0f       	add	r20, r20
     a06:	55 1f       	adc	r21, r21
     a08:	66 1f       	adc	r22, r22
     a0a:	77 1f       	adc	r23, r23
     a0c:	44 0f       	add	r20, r20
     a0e:	55 1f       	adc	r21, r21
     a10:	66 1f       	adc	r22, r22
     a12:	77 1f       	adc	r23, r23
     a14:	44 0f       	add	r20, r20
     a16:	55 1f       	adc	r21, r21
     a18:	66 1f       	adc	r22, r22
     a1a:	77 1f       	adc	r23, r23
     a1c:	44 0f       	add	r20, r20
     a1e:	55 1f       	adc	r21, r21
     a20:	66 1f       	adc	r22, r22
     a22:	77 1f       	adc	r23, r23
     a24:	0c 81       	ldd	r16, Y+4	; 0x04
     a26:	10 e0       	ldi	r17, 0x00	; 0
     a28:	20 e0       	ldi	r18, 0x00	; 0
     a2a:	30 e0       	ldi	r19, 0x00	; 0
     a2c:	0f 2e       	mov	r0, r31
     a2e:	fc e0       	ldi	r31, 0x0C	; 12
     a30:	00 0f       	add	r16, r16
     a32:	11 1f       	adc	r17, r17
     a34:	22 1f       	adc	r18, r18
     a36:	33 1f       	adc	r19, r19
     a38:	fa 95       	dec	r31
     a3a:	d1 f7       	brne	.-12     	; 0xa30 <_ZN6BME2809read_dataEv+0xee>
     a3c:	f0 2d       	mov	r31, r0
     a3e:	40 2b       	or	r20, r16
     a40:	51 2b       	or	r21, r17
     a42:	62 2b       	or	r22, r18
     a44:	73 2b       	or	r23, r19
     a46:	8e 81       	ldd	r24, Y+6	; 0x06
     a48:	82 95       	swap	r24
     a4a:	8f 70       	andi	r24, 0x0F	; 15
     a4c:	48 2b       	or	r20, r24
     a4e:	44 87       	std	Z+12, r20	; 0x0c
     a50:	55 87       	std	Z+13, r21	; 0x0d
     a52:	66 87       	std	Z+14, r22	; 0x0e
     a54:	77 87       	std	Z+15, r23	; 0x0f
     a56:	8f 81       	ldd	r24, Y+7	; 0x07
     a58:	90 e0       	ldi	r25, 0x00	; 0
     a5a:	a0 e0       	ldi	r26, 0x00	; 0
     a5c:	b0 e0       	ldi	r27, 0x00	; 0
     a5e:	ba 2f       	mov	r27, r26
     a60:	a9 2f       	mov	r26, r25
     a62:	98 2f       	mov	r25, r24
     a64:	88 27       	eor	r24, r24
     a66:	28 85       	ldd	r18, Y+8	; 0x08
     a68:	82 2b       	or	r24, r18
     a6a:	80 8b       	std	Z+16, r24	; 0x10
     a6c:	91 8b       	std	Z+17, r25	; 0x11
     a6e:	a2 8b       	std	Z+18, r26	; 0x12
     a70:	b3 8b       	std	Z+19, r27	; 0x13
     a72:	c7 01       	movw	r24, r14
     a74:	0e 94 72 00 	call	0xe4	; 0xe4 <_ZN6BME28016convert_pressureEv>
     a78:	f7 01       	movw	r30, r14
     a7a:	64 8b       	std	Z+20, r22	; 0x14
     a7c:	75 8b       	std	Z+21, r23	; 0x15
     a7e:	86 8b       	std	Z+22, r24	; 0x16
     a80:	97 8b       	std	Z+23, r25	; 0x17
     a82:	c7 01       	movw	r24, r14
     a84:	0e 94 04 03 	call	0x608	; 0x608 <_ZN6BME28019convert_temperatureEv>
     a88:	f7 01       	movw	r30, r14
     a8a:	60 8f       	std	Z+24, r22	; 0x18
     a8c:	71 8f       	std	Z+25, r23	; 0x19
     a8e:	82 8f       	std	Z+26, r24	; 0x1a
     a90:	93 8f       	std	Z+27, r25	; 0x1b
     a92:	c7 01       	movw	r24, r14
     a94:	0e 94 a7 03 	call	0x74e	; 0x74e <_ZN6BME28016convert_humidityEv>
     a98:	f7 01       	movw	r30, r14
     a9a:	64 8f       	std	Z+28, r22	; 0x1c
     a9c:	75 8f       	std	Z+29, r23	; 0x1d
     a9e:	86 8f       	std	Z+30, r24	; 0x1e
     aa0:	97 8f       	std	Z+31, r25	; 0x1f
     aa2:	8d 2d       	mov	r24, r13
     aa4:	28 96       	adiw	r28, 0x08	; 8
     aa6:	0f b6       	in	r0, 0x3f	; 63
     aa8:	f8 94       	cli
     aaa:	de bf       	out	0x3e, r29	; 62
     aac:	0f be       	out	0x3f, r0	; 63
     aae:	cd bf       	out	0x3d, r28	; 61
     ab0:	df 91       	pop	r29
     ab2:	cf 91       	pop	r28
     ab4:	1f 91       	pop	r17
     ab6:	0f 91       	pop	r16
     ab8:	ff 90       	pop	r15
     aba:	ef 90       	pop	r14
     abc:	df 90       	pop	r13
     abe:	08 95       	ret

00000ac0 <_ZN6BME2808read_calEv>:
     ac0:	ef 92       	push	r14
     ac2:	ff 92       	push	r15
     ac4:	0f 93       	push	r16
     ac6:	cf 93       	push	r28
     ac8:	df 93       	push	r29
     aca:	cd b7       	in	r28, 0x3d	; 61
     acc:	de b7       	in	r29, 0x3e	; 62
     ace:	a1 97       	sbiw	r28, 0x21	; 33
     ad0:	0f b6       	in	r0, 0x3f	; 63
     ad2:	f8 94       	cli
     ad4:	de bf       	out	0x3e, r29	; 62
     ad6:	0f be       	out	0x3f, r0	; 63
     ad8:	cd bf       	out	0x3d, r28	; 61
     ada:	7c 01       	movw	r14, r24
     adc:	0a e1       	ldi	r16, 0x1A	; 26
     ade:	9e 01       	movw	r18, r28
     ae0:	2f 5f       	subi	r18, 0xFF	; 255
     ae2:	3f 4f       	sbci	r19, 0xFF	; 255
     ae4:	48 e8       	ldi	r20, 0x88	; 136
     ae6:	6e ee       	ldi	r22, 0xEE	; 238
     ae8:	fc 01       	movw	r30, r24
     aea:	80 81       	ld	r24, Z
     aec:	91 81       	ldd	r25, Z+1	; 0x01
     aee:	0e 94 08 09 	call	0x1210	; 0x1210 <_ZN3i2c4readEhhPhh>
     af2:	81 11       	cpse	r24, r1
     af4:	0d c0       	rjmp	.+26     	; 0xb10 <_ZN6BME2808read_calEv+0x50>
     af6:	07 e0       	ldi	r16, 0x07	; 7
     af8:	9e 01       	movw	r18, r28
     afa:	25 5e       	subi	r18, 0xE5	; 229
     afc:	3f 4f       	sbci	r19, 0xFF	; 255
     afe:	41 ee       	ldi	r20, 0xE1	; 225
     b00:	6e ee       	ldi	r22, 0xEE	; 238
     b02:	f7 01       	movw	r30, r14
     b04:	80 81       	ld	r24, Z
     b06:	91 81       	ldd	r25, Z+1	; 0x01
     b08:	0e 94 08 09 	call	0x1210	; 0x1210 <_ZN3i2c4readEhhPhh>
     b0c:	88 23       	and	r24, r24
     b0e:	91 f0       	breq	.+36     	; 0xb34 <_ZN6BME2808read_calEv+0x74>
     b10:	80 e3       	ldi	r24, 0x30	; 48
     b12:	e4 e6       	ldi	r30, 0x64	; 100
     b14:	f1 e0       	ldi	r31, 0x01	; 1
     b16:	a7 ec       	ldi	r26, 0xC7	; 199
     b18:	b5 e0       	ldi	r27, 0x05	; 5
     b1a:	01 90       	ld	r0, Z+
     b1c:	0d 92       	st	X+, r0
     b1e:	8a 95       	dec	r24
     b20:	e1 f7       	brne	.-8      	; 0xb1a <_ZN6BME2808read_calEv+0x5a>
     b22:	67 ec       	ldi	r22, 0xC7	; 199
     b24:	75 e0       	ldi	r23, 0x05	; 5
     b26:	f7 01       	movw	r30, r14
     b28:	82 81       	ldd	r24, Z+2	; 0x02
     b2a:	93 81       	ldd	r25, Z+3	; 0x03
     b2c:	0e 94 ff 0e 	call	0x1dfe	; 0x1dfe <_ZN6serial4sendEPc>
     b30:	81 e0       	ldi	r24, 0x01	; 1
     b32:	88 c0       	rjmp	.+272    	; 0xc44 <_ZN6BME2808read_calEv+0x184>
     b34:	2a 81       	ldd	r18, Y+2	; 0x02
     b36:	30 e0       	ldi	r19, 0x00	; 0
     b38:	32 2f       	mov	r19, r18
     b3a:	22 27       	eor	r18, r18
     b3c:	99 81       	ldd	r25, Y+1	; 0x01
     b3e:	29 2b       	or	r18, r25
     b40:	f7 01       	movw	r30, r14
     b42:	31 a3       	std	Z+33, r19	; 0x21
     b44:	20 a3       	std	Z+32, r18	; 0x20
     b46:	2c 81       	ldd	r18, Y+4	; 0x04
     b48:	30 e0       	ldi	r19, 0x00	; 0
     b4a:	32 2f       	mov	r19, r18
     b4c:	22 27       	eor	r18, r18
     b4e:	9b 81       	ldd	r25, Y+3	; 0x03
     b50:	29 2b       	or	r18, r25
     b52:	33 a3       	std	Z+35, r19	; 0x23
     b54:	22 a3       	std	Z+34, r18	; 0x22
     b56:	2e 81       	ldd	r18, Y+6	; 0x06
     b58:	30 e0       	ldi	r19, 0x00	; 0
     b5a:	32 2f       	mov	r19, r18
     b5c:	22 27       	eor	r18, r18
     b5e:	9d 81       	ldd	r25, Y+5	; 0x05
     b60:	29 2b       	or	r18, r25
     b62:	35 a3       	std	Z+37, r19	; 0x25
     b64:	24 a3       	std	Z+36, r18	; 0x24
     b66:	28 85       	ldd	r18, Y+8	; 0x08
     b68:	30 e0       	ldi	r19, 0x00	; 0
     b6a:	32 2f       	mov	r19, r18
     b6c:	22 27       	eor	r18, r18
     b6e:	9f 81       	ldd	r25, Y+7	; 0x07
     b70:	29 2b       	or	r18, r25
     b72:	37 a3       	std	Z+39, r19	; 0x27
     b74:	26 a3       	std	Z+38, r18	; 0x26
     b76:	2a 85       	ldd	r18, Y+10	; 0x0a
     b78:	30 e0       	ldi	r19, 0x00	; 0
     b7a:	32 2f       	mov	r19, r18
     b7c:	22 27       	eor	r18, r18
     b7e:	99 85       	ldd	r25, Y+9	; 0x09
     b80:	29 2b       	or	r18, r25
     b82:	31 a7       	std	Z+41, r19	; 0x29
     b84:	20 a7       	std	Z+40, r18	; 0x28
     b86:	2c 85       	ldd	r18, Y+12	; 0x0c
     b88:	30 e0       	ldi	r19, 0x00	; 0
     b8a:	32 2f       	mov	r19, r18
     b8c:	22 27       	eor	r18, r18
     b8e:	9b 85       	ldd	r25, Y+11	; 0x0b
     b90:	29 2b       	or	r18, r25
     b92:	33 a7       	std	Z+43, r19	; 0x2b
     b94:	22 a7       	std	Z+42, r18	; 0x2a
     b96:	2e 85       	ldd	r18, Y+14	; 0x0e
     b98:	30 e0       	ldi	r19, 0x00	; 0
     b9a:	32 2f       	mov	r19, r18
     b9c:	22 27       	eor	r18, r18
     b9e:	9d 85       	ldd	r25, Y+13	; 0x0d
     ba0:	29 2b       	or	r18, r25
     ba2:	35 a7       	std	Z+45, r19	; 0x2d
     ba4:	24 a7       	std	Z+44, r18	; 0x2c
     ba6:	28 89       	ldd	r18, Y+16	; 0x10
     ba8:	30 e0       	ldi	r19, 0x00	; 0
     baa:	32 2f       	mov	r19, r18
     bac:	22 27       	eor	r18, r18
     bae:	9f 85       	ldd	r25, Y+15	; 0x0f
     bb0:	29 2b       	or	r18, r25
     bb2:	37 a7       	std	Z+47, r19	; 0x2f
     bb4:	26 a7       	std	Z+46, r18	; 0x2e
     bb6:	2a 89       	ldd	r18, Y+18	; 0x12
     bb8:	30 e0       	ldi	r19, 0x00	; 0
     bba:	32 2f       	mov	r19, r18
     bbc:	22 27       	eor	r18, r18
     bbe:	99 89       	ldd	r25, Y+17	; 0x11
     bc0:	29 2b       	or	r18, r25
     bc2:	31 ab       	std	Z+49, r19	; 0x31
     bc4:	20 ab       	std	Z+48, r18	; 0x30
     bc6:	2c 89       	ldd	r18, Y+20	; 0x14
     bc8:	30 e0       	ldi	r19, 0x00	; 0
     bca:	32 2f       	mov	r19, r18
     bcc:	22 27       	eor	r18, r18
     bce:	9b 89       	ldd	r25, Y+19	; 0x13
     bd0:	29 2b       	or	r18, r25
     bd2:	33 ab       	std	Z+51, r19	; 0x33
     bd4:	22 ab       	std	Z+50, r18	; 0x32
     bd6:	2e 89       	ldd	r18, Y+22	; 0x16
     bd8:	30 e0       	ldi	r19, 0x00	; 0
     bda:	32 2f       	mov	r19, r18
     bdc:	22 27       	eor	r18, r18
     bde:	9d 89       	ldd	r25, Y+21	; 0x15
     be0:	29 2b       	or	r18, r25
     be2:	35 ab       	std	Z+53, r19	; 0x35
     be4:	24 ab       	std	Z+52, r18	; 0x34
     be6:	28 8d       	ldd	r18, Y+24	; 0x18
     be8:	30 e0       	ldi	r19, 0x00	; 0
     bea:	32 2f       	mov	r19, r18
     bec:	22 27       	eor	r18, r18
     bee:	9f 89       	ldd	r25, Y+23	; 0x17
     bf0:	29 2b       	or	r18, r25
     bf2:	37 ab       	std	Z+55, r19	; 0x37
     bf4:	26 ab       	std	Z+54, r18	; 0x36
     bf6:	9a 8d       	ldd	r25, Y+26	; 0x1a
     bf8:	90 af       	std	Z+56, r25	; 0x38
     bfa:	2c 8d       	ldd	r18, Y+28	; 0x1c
     bfc:	30 e0       	ldi	r19, 0x00	; 0
     bfe:	32 2f       	mov	r19, r18
     c00:	22 27       	eor	r18, r18
     c02:	9b 8d       	ldd	r25, Y+27	; 0x1b
     c04:	29 2b       	or	r18, r25
     c06:	32 af       	std	Z+58, r19	; 0x3a
     c08:	21 af       	std	Z+57, r18	; 0x39
     c0a:	9d 8d       	ldd	r25, Y+29	; 0x1d
     c0c:	93 af       	std	Z+59, r25	; 0x3b
     c0e:	9f 8d       	ldd	r25, Y+31	; 0x1f
     c10:	49 2f       	mov	r20, r25
     c12:	4f 70       	andi	r20, 0x0F	; 15
     c14:	2e 8d       	ldd	r18, Y+30	; 0x1e
     c16:	f0 e1       	ldi	r31, 0x10	; 16
     c18:	2f 9f       	mul	r18, r31
     c1a:	90 01       	movw	r18, r0
     c1c:	11 24       	eor	r1, r1
     c1e:	24 2b       	or	r18, r20
     c20:	f7 01       	movw	r30, r14
     c22:	35 af       	std	Z+61, r19	; 0x3d
     c24:	24 af       	std	Z+60, r18	; 0x3c
     c26:	92 95       	swap	r25
     c28:	9f 70       	andi	r25, 0x0F	; 15
     c2a:	28 a1       	ldd	r18, Y+32	; 0x20
     c2c:	f0 e1       	ldi	r31, 0x10	; 16
     c2e:	2f 9f       	mul	r18, r31
     c30:	90 01       	movw	r18, r0
     c32:	11 24       	eor	r1, r1
     c34:	29 2b       	or	r18, r25
     c36:	f7 01       	movw	r30, r14
     c38:	37 af       	std	Z+63, r19	; 0x3f
     c3a:	26 af       	std	Z+62, r18	; 0x3e
     c3c:	e0 5c       	subi	r30, 0xC0	; 192
     c3e:	ff 4f       	sbci	r31, 0xFF	; 255
     c40:	99 a1       	ldd	r25, Y+33	; 0x21
     c42:	90 83       	st	Z, r25
     c44:	a1 96       	adiw	r28, 0x21	; 33
     c46:	0f b6       	in	r0, 0x3f	; 63
     c48:	f8 94       	cli
     c4a:	de bf       	out	0x3e, r29	; 62
     c4c:	0f be       	out	0x3f, r0	; 63
     c4e:	cd bf       	out	0x3d, r28	; 61
     c50:	df 91       	pop	r29
     c52:	cf 91       	pop	r28
     c54:	0f 91       	pop	r16
     c56:	ff 90       	pop	r15
     c58:	ef 90       	pop	r14
     c5a:	08 95       	ret

00000c5c <_ZN6BME280C1EP3i2cP6seriall>:
     c5c:	0f 93       	push	r16
     c5e:	1f 93       	push	r17
     c60:	cf 93       	push	r28
     c62:	df 93       	push	r29
     c64:	ec 01       	movw	r28, r24
     c66:	cb 01       	movw	r24, r22
     c68:	79 83       	std	Y+1, r23	; 0x01
     c6a:	68 83       	st	Y, r22
     c6c:	5b 83       	std	Y+3, r21	; 0x03
     c6e:	4a 83       	std	Y+2, r20	; 0x02
     c70:	0c 83       	std	Y+4, r16	; 0x04
     c72:	1d 83       	std	Y+5, r17	; 0x05
     c74:	2e 83       	std	Y+6, r18	; 0x06
     c76:	3f 83       	std	Y+7, r19	; 0x07
     c78:	6e ee       	ldi	r22, 0xEE	; 238
     c7a:	0e 94 7d 08 	call	0x10fa	; 0x10fa <_ZN3i2c4pingEh>
     c7e:	88 23       	and	r24, r24
     c80:	f9 f0       	breq	.+62     	; 0xcc0 <_ZN6BME280C1EP3i2cP6seriall+0x64>
     c82:	1f 92       	push	r1
     c84:	8e ee       	ldi	r24, 0xEE	; 238
     c86:	8f 93       	push	r24
     c88:	84 e9       	ldi	r24, 0x94	; 148
     c8a:	91 e0       	ldi	r25, 0x01	; 1
     c8c:	9f 93       	push	r25
     c8e:	8f 93       	push	r24
     c90:	87 ec       	ldi	r24, 0xC7	; 199
     c92:	95 e0       	ldi	r25, 0x05	; 5
     c94:	9f 93       	push	r25
     c96:	8f 93       	push	r24
     c98:	0e 94 74 12 	call	0x24e8	; 0x24e8 <sprintf>
     c9c:	67 ec       	ldi	r22, 0xC7	; 199
     c9e:	75 e0       	ldi	r23, 0x05	; 5
     ca0:	8a 81       	ldd	r24, Y+2	; 0x02
     ca2:	9b 81       	ldd	r25, Y+3	; 0x03
     ca4:	0e 94 ff 0e 	call	0x1dfe	; 0x1dfe <_ZN6serial4sendEPc>
     ca8:	ce 01       	movw	r24, r28
     caa:	0e 94 53 00 	call	0xa6	; 0xa6 <_ZN6BME2804initEv>
     cae:	0f 90       	pop	r0
     cb0:	0f 90       	pop	r0
     cb2:	0f 90       	pop	r0
     cb4:	0f 90       	pop	r0
     cb6:	0f 90       	pop	r0
     cb8:	0f 90       	pop	r0
     cba:	88 23       	and	r24, r24
     cbc:	59 f1       	breq	.+86     	; 0xd14 <_ZN6BME280C1EP3i2cP6seriall+0xb8>
     cbe:	1a c0       	rjmp	.+52     	; 0xcf4 <_ZN6BME280C1EP3i2cP6seriall+0x98>
     cc0:	1f 92       	push	r1
     cc2:	8e ee       	ldi	r24, 0xEE	; 238
     cc4:	8f 93       	push	r24
     cc6:	8a ea       	ldi	r24, 0xAA	; 170
     cc8:	91 e0       	ldi	r25, 0x01	; 1
     cca:	9f 93       	push	r25
     ccc:	8f 93       	push	r24
     cce:	87 ec       	ldi	r24, 0xC7	; 199
     cd0:	95 e0       	ldi	r25, 0x05	; 5
     cd2:	9f 93       	push	r25
     cd4:	8f 93       	push	r24
     cd6:	0e 94 74 12 	call	0x24e8	; 0x24e8 <sprintf>
     cda:	67 ec       	ldi	r22, 0xC7	; 199
     cdc:	75 e0       	ldi	r23, 0x05	; 5
     cde:	8a 81       	ldd	r24, Y+2	; 0x02
     ce0:	9b 81       	ldd	r25, Y+3	; 0x03
     ce2:	0e 94 ff 0e 	call	0x1dfe	; 0x1dfe <_ZN6serial4sendEPc>
     ce6:	0f 90       	pop	r0
     ce8:	0f 90       	pop	r0
     cea:	0f 90       	pop	r0
     cec:	0f 90       	pop	r0
     cee:	0f 90       	pop	r0
     cf0:	0f 90       	pop	r0
     cf2:	37 c0       	rjmp	.+110    	; 0xd62 <_ZN6BME280C1EP3i2cP6seriall+0x106>
     cf4:	85 e2       	ldi	r24, 0x25	; 37
     cf6:	ef eb       	ldi	r30, 0xBF	; 191
     cf8:	f1 e0       	ldi	r31, 0x01	; 1
     cfa:	a7 ec       	ldi	r26, 0xC7	; 199
     cfc:	b5 e0       	ldi	r27, 0x05	; 5
     cfe:	01 90       	ld	r0, Z+
     d00:	0d 92       	st	X+, r0
     d02:	8a 95       	dec	r24
     d04:	e1 f7       	brne	.-8      	; 0xcfe <_ZN6BME280C1EP3i2cP6seriall+0xa2>
     d06:	67 ec       	ldi	r22, 0xC7	; 199
     d08:	75 e0       	ldi	r23, 0x05	; 5
     d0a:	8a 81       	ldd	r24, Y+2	; 0x02
     d0c:	9b 81       	ldd	r25, Y+3	; 0x03
     d0e:	0e 94 ff 0e 	call	0x1dfe	; 0x1dfe <_ZN6serial4sendEPc>
     d12:	27 c0       	rjmp	.+78     	; 0xd62 <_ZN6BME280C1EP3i2cP6seriall+0x106>
     d14:	ce 01       	movw	r24, r28
     d16:	0e 94 60 05 	call	0xac0	; 0xac0 <_ZN6BME2808read_calEv>
     d1a:	88 23       	and	r24, r24
     d1c:	81 f0       	breq	.+32     	; 0xd3e <_ZN6BME280C1EP3i2cP6seriall+0xe2>
     d1e:	89 e2       	ldi	r24, 0x29	; 41
     d20:	e4 ee       	ldi	r30, 0xE4	; 228
     d22:	f1 e0       	ldi	r31, 0x01	; 1
     d24:	a7 ec       	ldi	r26, 0xC7	; 199
     d26:	b5 e0       	ldi	r27, 0x05	; 5
     d28:	01 90       	ld	r0, Z+
     d2a:	0d 92       	st	X+, r0
     d2c:	8a 95       	dec	r24
     d2e:	e1 f7       	brne	.-8      	; 0xd28 <_ZN6BME280C1EP3i2cP6seriall+0xcc>
     d30:	67 ec       	ldi	r22, 0xC7	; 199
     d32:	75 e0       	ldi	r23, 0x05	; 5
     d34:	8a 81       	ldd	r24, Y+2	; 0x02
     d36:	9b 81       	ldd	r25, Y+3	; 0x03
     d38:	0e 94 ff 0e 	call	0x1dfe	; 0x1dfe <_ZN6serial4sendEPc>
     d3c:	12 c0       	rjmp	.+36     	; 0xd62 <_ZN6BME280C1EP3i2cP6seriall+0x106>
     d3e:	ce 01       	movw	r24, r28
     d40:	0e 94 a1 04 	call	0x942	; 0x942 <_ZN6BME2809read_dataEv>
     d44:	89 e1       	ldi	r24, 0x19	; 25
     d46:	ed e0       	ldi	r30, 0x0D	; 13
     d48:	f2 e0       	ldi	r31, 0x02	; 2
     d4a:	a7 ec       	ldi	r26, 0xC7	; 199
     d4c:	b5 e0       	ldi	r27, 0x05	; 5
     d4e:	01 90       	ld	r0, Z+
     d50:	0d 92       	st	X+, r0
     d52:	8a 95       	dec	r24
     d54:	e1 f7       	brne	.-8      	; 0xd4e <_ZN6BME280C1EP3i2cP6seriall+0xf2>
     d56:	67 ec       	ldi	r22, 0xC7	; 199
     d58:	75 e0       	ldi	r23, 0x05	; 5
     d5a:	8a 81       	ldd	r24, Y+2	; 0x02
     d5c:	9b 81       	ldd	r25, Y+3	; 0x03
     d5e:	0e 94 ff 0e 	call	0x1dfe	; 0x1dfe <_ZN6serial4sendEPc>
     d62:	df 91       	pop	r29
     d64:	cf 91       	pop	r28
     d66:	1f 91       	pop	r17
     d68:	0f 91       	pop	r16
     d6a:	08 95       	ret

00000d6c <_ZN6BME28010BME280TaskEv>:
     d6c:	8f 92       	push	r8
     d6e:	9f 92       	push	r9
     d70:	af 92       	push	r10
     d72:	bf 92       	push	r11
     d74:	cf 92       	push	r12
     d76:	df 92       	push	r13
     d78:	ef 92       	push	r14
     d7a:	ff 92       	push	r15
     d7c:	0f 93       	push	r16
     d7e:	1f 93       	push	r17
     d80:	cf 93       	push	r28
     d82:	df 93       	push	r29
     d84:	ec 01       	movw	r28, r24
     d86:	20 91 c0 05 	lds	r18, 0x05C0
     d8a:	9d ec       	ldi	r25, 0xCD	; 205
     d8c:	29 9f       	mul	r18, r25
     d8e:	91 2d       	mov	r25, r1
     d90:	11 24       	eor	r1, r1
     d92:	96 95       	lsr	r25
     d94:	96 95       	lsr	r25
     d96:	39 2f       	mov	r19, r25
     d98:	33 0f       	add	r19, r19
     d9a:	33 0f       	add	r19, r19
     d9c:	93 0f       	add	r25, r19
     d9e:	29 13       	cpse	r18, r25
     da0:	b0 c0       	rjmp	.+352    	; 0xf02 <_ZN6BME28010BME280TaskEv+0x196>
     da2:	07 ec       	ldi	r16, 0xC7	; 199
     da4:	15 e0       	ldi	r17, 0x05	; 5
     da6:	88 e1       	ldi	r24, 0x18	; 24
     da8:	e6 e2       	ldi	r30, 0x26	; 38
     daa:	f2 e0       	ldi	r31, 0x02	; 2
     dac:	d8 01       	movw	r26, r16
     dae:	01 90       	ld	r0, Z+
     db0:	0d 92       	st	X+, r0
     db2:	8a 95       	dec	r24
     db4:	e1 f7       	brne	.-8      	; 0xdae <_ZN6BME28010BME280TaskEv+0x42>
     db6:	b8 01       	movw	r22, r16
     db8:	8a 81       	ldd	r24, Y+2	; 0x02
     dba:	9b 81       	ldd	r25, Y+3	; 0x03
     dbc:	0e 94 ff 0e 	call	0x1dfe	; 0x1dfe <_ZN6serial4sendEPc>
     dc0:	ce 01       	movw	r24, r28
     dc2:	0e 94 a1 04 	call	0x942	; 0x942 <_ZN6BME2809read_dataEv>
     dc6:	c8 8c       	ldd	r12, Y+24	; 0x18
     dc8:	d9 8c       	ldd	r13, Y+25	; 0x19
     dca:	ea 8c       	ldd	r14, Y+26	; 0x1a
     dcc:	fb 8c       	ldd	r15, Y+27	; 0x1b
     dce:	d7 01       	movw	r26, r14
     dd0:	c6 01       	movw	r24, r12
     dd2:	88 0f       	add	r24, r24
     dd4:	99 1f       	adc	r25, r25
     dd6:	aa 1f       	adc	r26, r26
     dd8:	bb 1f       	adc	r27, r27
     dda:	88 0f       	add	r24, r24
     ddc:	99 1f       	adc	r25, r25
     dde:	aa 1f       	adc	r26, r26
     de0:	bb 1f       	adc	r27, r27
     de2:	88 0f       	add	r24, r24
     de4:	99 1f       	adc	r25, r25
     de6:	aa 1f       	adc	r26, r26
     de8:	bb 1f       	adc	r27, r27
     dea:	8c 0d       	add	r24, r12
     dec:	9d 1d       	adc	r25, r13
     dee:	ae 1d       	adc	r26, r14
     df0:	bf 1d       	adc	r27, r15
     df2:	bc 01       	movw	r22, r24
     df4:	cd 01       	movw	r24, r26
     df6:	60 58       	subi	r22, 0x80	; 128
     df8:	71 4c       	sbci	r23, 0xC1	; 193
     dfa:	8f 4f       	sbci	r24, 0xFF	; 255
     dfc:	9f 4f       	sbci	r25, 0xFF	; 255
     dfe:	25 e0       	ldi	r18, 0x05	; 5
     e00:	30 e0       	ldi	r19, 0x00	; 0
     e02:	40 e0       	ldi	r20, 0x00	; 0
     e04:	50 e0       	ldi	r21, 0x00	; 0
     e06:	0e 94 9a 10 	call	0x2134	; 0x2134 <__divmodsi4>
     e0a:	0f 2e       	mov	r0, r31
     e0c:	f4 e6       	ldi	r31, 0x64	; 100
     e0e:	8f 2e       	mov	r8, r31
     e10:	91 2c       	mov	r9, r1
     e12:	a1 2c       	mov	r10, r1
     e14:	b1 2c       	mov	r11, r1
     e16:	f0 2d       	mov	r31, r0
     e18:	ca 01       	movw	r24, r20
     e1a:	b9 01       	movw	r22, r18
     e1c:	a5 01       	movw	r20, r10
     e1e:	94 01       	movw	r18, r8
     e20:	0e 94 9a 10 	call	0x2134	; 0x2134 <__divmodsi4>
     e24:	9f 93       	push	r25
     e26:	8f 93       	push	r24
     e28:	7f 93       	push	r23
     e2a:	6f 93       	push	r22
     e2c:	5f 93       	push	r21
     e2e:	4f 93       	push	r20
     e30:	3f 93       	push	r19
     e32:	2f 93       	push	r18
     e34:	c7 01       	movw	r24, r14
     e36:	b6 01       	movw	r22, r12
     e38:	a5 01       	movw	r20, r10
     e3a:	94 01       	movw	r18, r8
     e3c:	0e 94 9a 10 	call	0x2134	; 0x2134 <__divmodsi4>
     e40:	9f 93       	push	r25
     e42:	8f 93       	push	r24
     e44:	7f 93       	push	r23
     e46:	6f 93       	push	r22
     e48:	5f 93       	push	r21
     e4a:	4f 93       	push	r20
     e4c:	3f 93       	push	r19
     e4e:	2f 93       	push	r18
     e50:	8e e3       	ldi	r24, 0x3E	; 62
     e52:	92 e0       	ldi	r25, 0x02	; 2
     e54:	9f 93       	push	r25
     e56:	8f 93       	push	r24
     e58:	1f 93       	push	r17
     e5a:	0f 93       	push	r16
     e5c:	0e 94 74 12 	call	0x24e8	; 0x24e8 <sprintf>
     e60:	b8 01       	movw	r22, r16
     e62:	8a 81       	ldd	r24, Y+2	; 0x02
     e64:	9b 81       	ldd	r25, Y+3	; 0x03
     e66:	0e 94 ff 0e 	call	0x1dfe	; 0x1dfe <_ZN6serial4sendEPc>
     e6a:	8c 8d       	ldd	r24, Y+28	; 0x1c
     e6c:	9d 8d       	ldd	r25, Y+29	; 0x1d
     e6e:	ae 8d       	ldd	r26, Y+30	; 0x1e
     e70:	bf 8d       	ldd	r27, Y+31	; 0x1f
     e72:	ac 01       	movw	r20, r24
     e74:	bd 01       	movw	r22, r26
     e76:	53 70       	andi	r21, 0x03	; 3
     e78:	66 27       	eor	r22, r22
     e7a:	77 27       	eor	r23, r23
     e7c:	7f 93       	push	r23
     e7e:	6f 93       	push	r22
     e80:	5f 93       	push	r21
     e82:	4f 93       	push	r20
     e84:	07 2e       	mov	r0, r23
     e86:	7a e0       	ldi	r23, 0x0A	; 10
     e88:	b6 95       	lsr	r27
     e8a:	a7 95       	ror	r26
     e8c:	97 95       	ror	r25
     e8e:	87 95       	ror	r24
     e90:	7a 95       	dec	r23
     e92:	d1 f7       	brne	.-12     	; 0xe88 <_ZN6BME28010BME280TaskEv+0x11c>
     e94:	70 2d       	mov	r23, r0
     e96:	bf 93       	push	r27
     e98:	af 93       	push	r26
     e9a:	9f 93       	push	r25
     e9c:	8f 93       	push	r24
     e9e:	86 e6       	ldi	r24, 0x66	; 102
     ea0:	92 e0       	ldi	r25, 0x02	; 2
     ea2:	9f 93       	push	r25
     ea4:	8f 93       	push	r24
     ea6:	1f 93       	push	r17
     ea8:	0f 93       	push	r16
     eaa:	0e 94 74 12 	call	0x24e8	; 0x24e8 <sprintf>
     eae:	8d b7       	in	r24, 0x3d	; 61
     eb0:	9e b7       	in	r25, 0x3e	; 62
     eb2:	80 96       	adiw	r24, 0x20	; 32
     eb4:	0f b6       	in	r0, 0x3f	; 63
     eb6:	f8 94       	cli
     eb8:	9e bf       	out	0x3e, r25	; 62
     eba:	0f be       	out	0x3f, r0	; 63
     ebc:	8d bf       	out	0x3d, r24	; 61
     ebe:	b8 01       	movw	r22, r16
     ec0:	8a 81       	ldd	r24, Y+2	; 0x02
     ec2:	9b 81       	ldd	r25, Y+3	; 0x03
     ec4:	0e 94 ff 0e 	call	0x1dfe	; 0x1dfe <_ZN6serial4sendEPc>
     ec8:	8f 89       	ldd	r24, Y+23	; 0x17
     eca:	8f 93       	push	r24
     ecc:	8e 89       	ldd	r24, Y+22	; 0x16
     ece:	8f 93       	push	r24
     ed0:	8d 89       	ldd	r24, Y+21	; 0x15
     ed2:	8f 93       	push	r24
     ed4:	8c 89       	ldd	r24, Y+20	; 0x14
     ed6:	8f 93       	push	r24
     ed8:	8c e7       	ldi	r24, 0x7C	; 124
     eda:	92 e0       	ldi	r25, 0x02	; 2
     edc:	9f 93       	push	r25
     ede:	8f 93       	push	r24
     ee0:	1f 93       	push	r17
     ee2:	0f 93       	push	r16
     ee4:	0e 94 74 12 	call	0x24e8	; 0x24e8 <sprintf>
     ee8:	b8 01       	movw	r22, r16
     eea:	8a 81       	ldd	r24, Y+2	; 0x02
     eec:	9b 81       	ldd	r25, Y+3	; 0x03
     eee:	0e 94 ff 0e 	call	0x1dfe	; 0x1dfe <_ZN6serial4sendEPc>
     ef2:	8d b7       	in	r24, 0x3d	; 61
     ef4:	9e b7       	in	r25, 0x3e	; 62
     ef6:	08 96       	adiw	r24, 0x08	; 8
     ef8:	0f b6       	in	r0, 0x3f	; 63
     efa:	f8 94       	cli
     efc:	9e bf       	out	0x3e, r25	; 62
     efe:	0f be       	out	0x3f, r0	; 63
     f00:	8d bf       	out	0x3d, r24	; 61
     f02:	80 91 c0 05 	lds	r24, 0x05C0
     f06:	8f 5f       	subi	r24, 0xFF	; 255
     f08:	80 93 c0 05 	sts	0x05C0, r24
     f0c:	df 91       	pop	r29
     f0e:	cf 91       	pop	r28
     f10:	1f 91       	pop	r17
     f12:	0f 91       	pop	r16
     f14:	ff 90       	pop	r15
     f16:	ef 90       	pop	r14
     f18:	df 90       	pop	r13
     f1a:	cf 90       	pop	r12
     f1c:	bf 90       	pop	r11
     f1e:	af 90       	pop	r10
     f20:	9f 90       	pop	r9
     f22:	8f 90       	pop	r8
     f24:	08 95       	ret

00000f26 <_ZN3i2cC1EP6serial>:
     f26:	fc 01       	movw	r30, r24
     f28:	71 83       	std	Z+1, r23	; 0x01
     f2a:	60 83       	st	Z, r22
     f2c:	10 92 b9 00 	sts	0x00B9, r1
     f30:	20 e2       	ldi	r18, 0x20	; 32
     f32:	20 93 b8 00 	sts	0x00B8, r18
     f36:	24 e0       	ldi	r18, 0x04	; 4
     f38:	20 93 bc 00 	sts	0x00BC, r18
     f3c:	26 e1       	ldi	r18, 0x16	; 22
     f3e:	ee e8       	ldi	r30, 0x8E	; 142
     f40:	f2 e0       	ldi	r31, 0x02	; 2
     f42:	a7 ec       	ldi	r26, 0xC7	; 199
     f44:	b5 e0       	ldi	r27, 0x05	; 5
     f46:	01 90       	ld	r0, Z+
     f48:	0d 92       	st	X+, r0
     f4a:	2a 95       	dec	r18
     f4c:	e1 f7       	brne	.-8      	; 0xf46 <_ZN3i2cC1EP6serial+0x20>
     f4e:	67 ec       	ldi	r22, 0xC7	; 199
     f50:	75 e0       	ldi	r23, 0x05	; 5
     f52:	fc 01       	movw	r30, r24
     f54:	80 81       	ld	r24, Z
     f56:	91 81       	ldd	r25, Z+1	; 0x01
     f58:	0e 94 ff 0e 	call	0x1dfe	; 0x1dfe <_ZN6serial4sendEPc>
     f5c:	08 95       	ret

00000f5e <_ZN3i2c5startEv>:
     f5e:	cf 93       	push	r28
     f60:	df 93       	push	r29
     f62:	ec 01       	movw	r28, r24
     f64:	ec eb       	ldi	r30, 0xBC	; 188
     f66:	f0 e0       	ldi	r31, 0x00	; 0
     f68:	84 ea       	ldi	r24, 0xA4	; 164
     f6a:	80 83       	st	Z, r24
     f6c:	80 81       	ld	r24, Z
     f6e:	88 23       	and	r24, r24
     f70:	ac f4       	brge	.+42     	; 0xf9c <_ZN3i2c5startEv+0x3e>
     f72:	1b c0       	rjmp	.+54     	; 0xfaa <_ZN3i2c5startEv+0x4c>
     f74:	21 50       	subi	r18, 0x01	; 1
     f76:	31 09       	sbc	r19, r1
     f78:	a9 f4       	brne	.+42     	; 0xfa4 <_ZN3i2c5startEv+0x46>
     f7a:	80 e2       	ldi	r24, 0x20	; 32
     f7c:	e4 ea       	ldi	r30, 0xA4	; 164
     f7e:	f2 e0       	ldi	r31, 0x02	; 2
     f80:	a7 ec       	ldi	r26, 0xC7	; 199
     f82:	b5 e0       	ldi	r27, 0x05	; 5
     f84:	01 90       	ld	r0, Z+
     f86:	0d 92       	st	X+, r0
     f88:	8a 95       	dec	r24
     f8a:	e1 f7       	brne	.-8      	; 0xf84 <_ZN3i2c5startEv+0x26>
     f8c:	67 ec       	ldi	r22, 0xC7	; 199
     f8e:	75 e0       	ldi	r23, 0x05	; 5
     f90:	88 81       	ld	r24, Y
     f92:	99 81       	ldd	r25, Y+1	; 0x01
     f94:	0e 94 ff 0e 	call	0x1dfe	; 0x1dfe <_ZN6serial4sendEPc>
     f98:	81 e0       	ldi	r24, 0x01	; 1
     f9a:	29 c0       	rjmp	.+82     	; 0xfee <_ZN3i2c5startEv+0x90>
     f9c:	21 e0       	ldi	r18, 0x01	; 1
     f9e:	34 e0       	ldi	r19, 0x04	; 4
     fa0:	ec eb       	ldi	r30, 0xBC	; 188
     fa2:	f0 e0       	ldi	r31, 0x00	; 0
     fa4:	90 81       	ld	r25, Z
     fa6:	99 23       	and	r25, r25
     fa8:	2c f7       	brge	.-54     	; 0xf74 <_ZN3i2c5startEv+0x16>
     faa:	90 91 b9 00 	lds	r25, 0x00B9
     fae:	98 7f       	andi	r25, 0xF8	; 248
     fb0:	98 30       	cpi	r25, 0x08	; 8
     fb2:	e1 f0       	breq	.+56     	; 0xfec <_ZN3i2c5startEv+0x8e>
     fb4:	80 91 b9 00 	lds	r24, 0x00B9
     fb8:	1f 92       	push	r1
     fba:	8f 93       	push	r24
     fbc:	84 ec       	ldi	r24, 0xC4	; 196
     fbe:	92 e0       	ldi	r25, 0x02	; 2
     fc0:	9f 93       	push	r25
     fc2:	8f 93       	push	r24
     fc4:	87 ec       	ldi	r24, 0xC7	; 199
     fc6:	95 e0       	ldi	r25, 0x05	; 5
     fc8:	9f 93       	push	r25
     fca:	8f 93       	push	r24
     fcc:	0e 94 74 12 	call	0x24e8	; 0x24e8 <sprintf>
     fd0:	67 ec       	ldi	r22, 0xC7	; 199
     fd2:	75 e0       	ldi	r23, 0x05	; 5
     fd4:	88 81       	ld	r24, Y
     fd6:	99 81       	ldd	r25, Y+1	; 0x01
     fd8:	0e 94 ff 0e 	call	0x1dfe	; 0x1dfe <_ZN6serial4sendEPc>
     fdc:	0f 90       	pop	r0
     fde:	0f 90       	pop	r0
     fe0:	0f 90       	pop	r0
     fe2:	0f 90       	pop	r0
     fe4:	0f 90       	pop	r0
     fe6:	0f 90       	pop	r0
     fe8:	81 e0       	ldi	r24, 0x01	; 1
     fea:	01 c0       	rjmp	.+2      	; 0xfee <_ZN3i2c5startEv+0x90>
     fec:	80 e0       	ldi	r24, 0x00	; 0
     fee:	df 91       	pop	r29
     ff0:	cf 91       	pop	r28
     ff2:	08 95       	ret

00000ff4 <_ZN3i2c7restartEv>:
     ff4:	cf 93       	push	r28
     ff6:	df 93       	push	r29
     ff8:	ec 01       	movw	r28, r24
     ffa:	ec eb       	ldi	r30, 0xBC	; 188
     ffc:	f0 e0       	ldi	r31, 0x00	; 0
     ffe:	84 ea       	ldi	r24, 0xA4	; 164
    1000:	80 83       	st	Z, r24
    1002:	80 81       	ld	r24, Z
    1004:	88 23       	and	r24, r24
    1006:	ac f4       	brge	.+42     	; 0x1032 <_ZN3i2c7restartEv+0x3e>
    1008:	1b c0       	rjmp	.+54     	; 0x1040 <_ZN3i2c7restartEv+0x4c>
    100a:	21 50       	subi	r18, 0x01	; 1
    100c:	31 09       	sbc	r19, r1
    100e:	a9 f4       	brne	.+42     	; 0x103a <_ZN3i2c7restartEv+0x46>
    1010:	82 e2       	ldi	r24, 0x22	; 34
    1012:	ed ee       	ldi	r30, 0xED	; 237
    1014:	f2 e0       	ldi	r31, 0x02	; 2
    1016:	a7 ec       	ldi	r26, 0xC7	; 199
    1018:	b5 e0       	ldi	r27, 0x05	; 5
    101a:	01 90       	ld	r0, Z+
    101c:	0d 92       	st	X+, r0
    101e:	8a 95       	dec	r24
    1020:	e1 f7       	brne	.-8      	; 0x101a <_ZN3i2c7restartEv+0x26>
    1022:	67 ec       	ldi	r22, 0xC7	; 199
    1024:	75 e0       	ldi	r23, 0x05	; 5
    1026:	88 81       	ld	r24, Y
    1028:	99 81       	ldd	r25, Y+1	; 0x01
    102a:	0e 94 ff 0e 	call	0x1dfe	; 0x1dfe <_ZN6serial4sendEPc>
    102e:	81 e0       	ldi	r24, 0x01	; 1
    1030:	29 c0       	rjmp	.+82     	; 0x1084 <_ZN3i2c7restartEv+0x90>
    1032:	21 e0       	ldi	r18, 0x01	; 1
    1034:	34 e0       	ldi	r19, 0x04	; 4
    1036:	ec eb       	ldi	r30, 0xBC	; 188
    1038:	f0 e0       	ldi	r31, 0x00	; 0
    103a:	90 81       	ld	r25, Z
    103c:	99 23       	and	r25, r25
    103e:	2c f7       	brge	.-54     	; 0x100a <_ZN3i2c7restartEv+0x16>
    1040:	90 91 b9 00 	lds	r25, 0x00B9
    1044:	98 7f       	andi	r25, 0xF8	; 248
    1046:	90 31       	cpi	r25, 0x10	; 16
    1048:	e1 f0       	breq	.+56     	; 0x1082 <_ZN3i2c7restartEv+0x8e>
    104a:	80 91 b9 00 	lds	r24, 0x00B9
    104e:	1f 92       	push	r1
    1050:	8f 93       	push	r24
    1052:	8f e0       	ldi	r24, 0x0F	; 15
    1054:	93 e0       	ldi	r25, 0x03	; 3
    1056:	9f 93       	push	r25
    1058:	8f 93       	push	r24
    105a:	87 ec       	ldi	r24, 0xC7	; 199
    105c:	95 e0       	ldi	r25, 0x05	; 5
    105e:	9f 93       	push	r25
    1060:	8f 93       	push	r24
    1062:	0e 94 74 12 	call	0x24e8	; 0x24e8 <sprintf>
    1066:	67 ec       	ldi	r22, 0xC7	; 199
    1068:	75 e0       	ldi	r23, 0x05	; 5
    106a:	88 81       	ld	r24, Y
    106c:	99 81       	ldd	r25, Y+1	; 0x01
    106e:	0e 94 ff 0e 	call	0x1dfe	; 0x1dfe <_ZN6serial4sendEPc>
    1072:	0f 90       	pop	r0
    1074:	0f 90       	pop	r0
    1076:	0f 90       	pop	r0
    1078:	0f 90       	pop	r0
    107a:	0f 90       	pop	r0
    107c:	0f 90       	pop	r0
    107e:	81 e0       	ldi	r24, 0x01	; 1
    1080:	01 c0       	rjmp	.+2      	; 0x1084 <_ZN3i2c7restartEv+0x90>
    1082:	80 e0       	ldi	r24, 0x00	; 0
    1084:	df 91       	pop	r29
    1086:	cf 91       	pop	r28
    1088:	08 95       	ret

0000108a <_ZN3i2c10write_byteEh>:
    108a:	cf 93       	push	r28
    108c:	df 93       	push	r29
    108e:	ac 01       	movw	r20, r24
    1090:	60 93 bb 00 	sts	0x00BB, r22
    1094:	ec eb       	ldi	r30, 0xBC	; 188
    1096:	f0 e0       	ldi	r31, 0x00	; 0
    1098:	94 e8       	ldi	r25, 0x84	; 132
    109a:	90 83       	st	Z, r25
    109c:	90 81       	ld	r25, Z
    109e:	99 23       	and	r25, r25
    10a0:	b4 f4       	brge	.+44     	; 0x10ce <_ZN3i2c10write_byteEh+0x44>
    10a2:	1c c0       	rjmp	.+56     	; 0x10dc <_ZN3i2c10write_byteEh+0x52>
    10a4:	21 50       	subi	r18, 0x01	; 1
    10a6:	31 09       	sbc	r19, r1
    10a8:	b1 f4       	brne	.+44     	; 0x10d6 <_ZN3i2c10write_byteEh+0x4c>
    10aa:	ea 01       	movw	r28, r20
    10ac:	85 e2       	ldi	r24, 0x25	; 37
    10ae:	ea e3       	ldi	r30, 0x3A	; 58
    10b0:	f3 e0       	ldi	r31, 0x03	; 3
    10b2:	a7 ec       	ldi	r26, 0xC7	; 199
    10b4:	b5 e0       	ldi	r27, 0x05	; 5
    10b6:	01 90       	ld	r0, Z+
    10b8:	0d 92       	st	X+, r0
    10ba:	8a 95       	dec	r24
    10bc:	e1 f7       	brne	.-8      	; 0x10b6 <_ZN3i2c10write_byteEh+0x2c>
    10be:	67 ec       	ldi	r22, 0xC7	; 199
    10c0:	75 e0       	ldi	r23, 0x05	; 5
    10c2:	88 81       	ld	r24, Y
    10c4:	99 81       	ldd	r25, Y+1	; 0x01
    10c6:	0e 94 ff 0e 	call	0x1dfe	; 0x1dfe <_ZN6serial4sendEPc>
    10ca:	81 e0       	ldi	r24, 0x01	; 1
    10cc:	13 c0       	rjmp	.+38     	; 0x10f4 <_ZN3i2c10write_byteEh+0x6a>
    10ce:	21 e0       	ldi	r18, 0x01	; 1
    10d0:	34 e0       	ldi	r19, 0x04	; 4
    10d2:	ec eb       	ldi	r30, 0xBC	; 188
    10d4:	f0 e0       	ldi	r31, 0x00	; 0
    10d6:	90 81       	ld	r25, Z
    10d8:	99 23       	and	r25, r25
    10da:	24 f7       	brge	.-56     	; 0x10a4 <_ZN3i2c10write_byteEh+0x1a>
    10dc:	80 91 b9 00 	lds	r24, 0x00B9
    10e0:	88 7f       	andi	r24, 0xF8	; 248
    10e2:	88 32       	cpi	r24, 0x28	; 40
    10e4:	31 f0       	breq	.+12     	; 0x10f2 <_ZN3i2c10write_byteEh+0x68>
    10e6:	80 34       	cpi	r24, 0x40	; 64
    10e8:	21 f0       	breq	.+8      	; 0x10f2 <_ZN3i2c10write_byteEh+0x68>
    10ea:	88 31       	cpi	r24, 0x18	; 24
    10ec:	11 f0       	breq	.+4      	; 0x10f2 <_ZN3i2c10write_byteEh+0x68>
    10ee:	80 e0       	ldi	r24, 0x00	; 0
    10f0:	01 c0       	rjmp	.+2      	; 0x10f4 <_ZN3i2c10write_byteEh+0x6a>
    10f2:	81 e0       	ldi	r24, 0x01	; 1
    10f4:	df 91       	pop	r29
    10f6:	cf 91       	pop	r28
    10f8:	08 95       	ret

000010fa <_ZN3i2c4pingEh>:
    10fa:	1f 93       	push	r17
    10fc:	cf 93       	push	r28
    10fe:	df 93       	push	r29
    1100:	ec 01       	movw	r28, r24
    1102:	16 2f       	mov	r17, r22
    1104:	0e 94 af 07 	call	0xf5e	; 0xf5e <_ZN3i2c5startEv>
    1108:	61 2f       	mov	r22, r17
    110a:	ce 01       	movw	r24, r28
    110c:	0e 94 45 08 	call	0x108a	; 0x108a <_ZN3i2c10write_byteEh>
    1110:	94 e9       	ldi	r25, 0x94	; 148
    1112:	90 93 bc 00 	sts	0x00BC, r25
    1116:	df 91       	pop	r29
    1118:	cf 91       	pop	r28
    111a:	1f 91       	pop	r17
    111c:	08 95       	ret

0000111e <_ZN3i2c9read_byteEb>:
    111e:	cf 93       	push	r28
    1120:	df 93       	push	r29
    1122:	ac 01       	movw	r20, r24
    1124:	66 23       	and	r22, r22
    1126:	21 f0       	breq	.+8      	; 0x1130 <_ZN3i2c9read_byteEb+0x12>
    1128:	84 ec       	ldi	r24, 0xC4	; 196
    112a:	80 93 bc 00 	sts	0x00BC, r24
    112e:	03 c0       	rjmp	.+6      	; 0x1136 <_ZN3i2c9read_byteEb+0x18>
    1130:	84 e8       	ldi	r24, 0x84	; 132
    1132:	80 93 bc 00 	sts	0x00BC, r24
    1136:	90 91 bc 00 	lds	r25, 0x00BC
    113a:	99 23       	and	r25, r25
    113c:	b4 f4       	brge	.+44     	; 0x116a <_ZN3i2c9read_byteEb+0x4c>
    113e:	1c c0       	rjmp	.+56     	; 0x1178 <_ZN3i2c9read_byteEb+0x5a>
    1140:	21 50       	subi	r18, 0x01	; 1
    1142:	31 09       	sbc	r19, r1
    1144:	b1 f4       	brne	.+44     	; 0x1172 <_ZN3i2c9read_byteEb+0x54>
    1146:	ea 01       	movw	r28, r20
    1148:	84 e2       	ldi	r24, 0x24	; 36
    114a:	ef e5       	ldi	r30, 0x5F	; 95
    114c:	f3 e0       	ldi	r31, 0x03	; 3
    114e:	a7 ec       	ldi	r26, 0xC7	; 199
    1150:	b5 e0       	ldi	r27, 0x05	; 5
    1152:	01 90       	ld	r0, Z+
    1154:	0d 92       	st	X+, r0
    1156:	8a 95       	dec	r24
    1158:	e1 f7       	brne	.-8      	; 0x1152 <_ZN3i2c9read_byteEb+0x34>
    115a:	67 ec       	ldi	r22, 0xC7	; 199
    115c:	75 e0       	ldi	r23, 0x05	; 5
    115e:	88 81       	ld	r24, Y
    1160:	99 81       	ldd	r25, Y+1	; 0x01
    1162:	0e 94 ff 0e 	call	0x1dfe	; 0x1dfe <_ZN6serial4sendEPc>
    1166:	8f ef       	ldi	r24, 0xFF	; 255
    1168:	09 c0       	rjmp	.+18     	; 0x117c <_ZN3i2c9read_byteEb+0x5e>
    116a:	21 e0       	ldi	r18, 0x01	; 1
    116c:	34 e0       	ldi	r19, 0x04	; 4
    116e:	ec eb       	ldi	r30, 0xBC	; 188
    1170:	f0 e0       	ldi	r31, 0x00	; 0
    1172:	90 81       	ld	r25, Z
    1174:	99 23       	and	r25, r25
    1176:	24 f7       	brge	.-56     	; 0x1140 <_ZN3i2c9read_byteEb+0x22>
    1178:	80 91 bb 00 	lds	r24, 0x00BB
    117c:	df 91       	pop	r29
    117e:	cf 91       	pop	r28
    1180:	08 95       	ret

00001182 <_ZN3i2c5writeEhhh>:
    1182:	ff 92       	push	r15
    1184:	0f 93       	push	r16
    1186:	1f 93       	push	r17
    1188:	cf 93       	push	r28
    118a:	df 93       	push	r29
    118c:	ec 01       	movw	r28, r24
    118e:	16 2f       	mov	r17, r22
    1190:	04 2f       	mov	r16, r20
    1192:	f2 2e       	mov	r15, r18
    1194:	0e 94 af 07 	call	0xf5e	; 0xf5e <_ZN3i2c5startEv>
    1198:	61 2f       	mov	r22, r17
    119a:	ce 01       	movw	r24, r28
    119c:	0e 94 45 08 	call	0x108a	; 0x108a <_ZN3i2c10write_byteEh>
    11a0:	88 23       	and	r24, r24
    11a2:	61 f0       	breq	.+24     	; 0x11bc <_ZN3i2c5writeEhhh+0x3a>
    11a4:	60 2f       	mov	r22, r16
    11a6:	ce 01       	movw	r24, r28
    11a8:	0e 94 45 08 	call	0x108a	; 0x108a <_ZN3i2c10write_byteEh>
    11ac:	88 23       	and	r24, r24
    11ae:	31 f0       	breq	.+12     	; 0x11bc <_ZN3i2c5writeEhhh+0x3a>
    11b0:	6f 2d       	mov	r22, r15
    11b2:	ce 01       	movw	r24, r28
    11b4:	0e 94 45 08 	call	0x108a	; 0x108a <_ZN3i2c10write_byteEh>
    11b8:	81 11       	cpse	r24, r1
    11ba:	20 c0       	rjmp	.+64     	; 0x11fc <_ZN3i2c5writeEhhh+0x7a>
    11bc:	1f 92       	push	r1
    11be:	ff 92       	push	r15
    11c0:	1f 92       	push	r1
    11c2:	0f 93       	push	r16
    11c4:	1f 92       	push	r1
    11c6:	1f 93       	push	r17
    11c8:	83 e8       	ldi	r24, 0x83	; 131
    11ca:	93 e0       	ldi	r25, 0x03	; 3
    11cc:	9f 93       	push	r25
    11ce:	8f 93       	push	r24
    11d0:	87 ec       	ldi	r24, 0xC7	; 199
    11d2:	95 e0       	ldi	r25, 0x05	; 5
    11d4:	9f 93       	push	r25
    11d6:	8f 93       	push	r24
    11d8:	0e 94 74 12 	call	0x24e8	; 0x24e8 <sprintf>
    11dc:	67 ec       	ldi	r22, 0xC7	; 199
    11de:	75 e0       	ldi	r23, 0x05	; 5
    11e0:	88 81       	ld	r24, Y
    11e2:	99 81       	ldd	r25, Y+1	; 0x01
    11e4:	0e 94 ff 0e 	call	0x1dfe	; 0x1dfe <_ZN6serial4sendEPc>
    11e8:	8d b7       	in	r24, 0x3d	; 61
    11ea:	9e b7       	in	r25, 0x3e	; 62
    11ec:	0a 96       	adiw	r24, 0x0a	; 10
    11ee:	0f b6       	in	r0, 0x3f	; 63
    11f0:	f8 94       	cli
    11f2:	9e bf       	out	0x3e, r25	; 62
    11f4:	0f be       	out	0x3f, r0	; 63
    11f6:	8d bf       	out	0x3d, r24	; 61
    11f8:	81 e0       	ldi	r24, 0x01	; 1
    11fa:	04 c0       	rjmp	.+8      	; 0x1204 <_ZN3i2c5writeEhhh+0x82>
    11fc:	84 e9       	ldi	r24, 0x94	; 148
    11fe:	80 93 bc 00 	sts	0x00BC, r24
    1202:	80 e0       	ldi	r24, 0x00	; 0
    1204:	df 91       	pop	r29
    1206:	cf 91       	pop	r28
    1208:	1f 91       	pop	r17
    120a:	0f 91       	pop	r16
    120c:	ff 90       	pop	r15
    120e:	08 95       	ret

00001210 <_ZN3i2c4readEhhPhh>:
    1210:	cf 92       	push	r12
    1212:	df 92       	push	r13
    1214:	ef 92       	push	r14
    1216:	ff 92       	push	r15
    1218:	0f 93       	push	r16
    121a:	1f 93       	push	r17
    121c:	cf 93       	push	r28
    121e:	df 93       	push	r29
    1220:	7c 01       	movw	r14, r24
    1222:	c6 2f       	mov	r28, r22
    1224:	14 2f       	mov	r17, r20
    1226:	69 01       	movw	r12, r18
    1228:	0e 94 af 07 	call	0xf5e	; 0xf5e <_ZN3i2c5startEv>
    122c:	6c 2f       	mov	r22, r28
    122e:	c7 01       	movw	r24, r14
    1230:	0e 94 45 08 	call	0x108a	; 0x108a <_ZN3i2c10write_byteEh>
    1234:	88 23       	and	r24, r24
    1236:	39 f0       	breq	.+14     	; 0x1246 <_ZN3i2c4readEhhPhh+0x36>
    1238:	61 2f       	mov	r22, r17
    123a:	c7 01       	movw	r24, r14
    123c:	0e 94 45 08 	call	0x108a	; 0x108a <_ZN3i2c10write_byteEh>
    1240:	d8 2f       	mov	r29, r24
    1242:	81 11       	cpse	r24, r1
    1244:	1f c0       	rjmp	.+62     	; 0x1284 <_ZN3i2c4readEhhPhh+0x74>
    1246:	1f 92       	push	r1
    1248:	1f 93       	push	r17
    124a:	1f 92       	push	r1
    124c:	cf 93       	push	r28
    124e:	87 ef       	ldi	r24, 0xF7	; 247
    1250:	93 e0       	ldi	r25, 0x03	; 3
    1252:	9f 93       	push	r25
    1254:	8f 93       	push	r24
    1256:	87 ec       	ldi	r24, 0xC7	; 199
    1258:	95 e0       	ldi	r25, 0x05	; 5
    125a:	9f 93       	push	r25
    125c:	8f 93       	push	r24
    125e:	0e 94 74 12 	call	0x24e8	; 0x24e8 <sprintf>
    1262:	67 ec       	ldi	r22, 0xC7	; 199
    1264:	75 e0       	ldi	r23, 0x05	; 5
    1266:	f7 01       	movw	r30, r14
    1268:	80 81       	ld	r24, Z
    126a:	91 81       	ldd	r25, Z+1	; 0x01
    126c:	0e 94 ff 0e 	call	0x1dfe	; 0x1dfe <_ZN6serial4sendEPc>
    1270:	8d b7       	in	r24, 0x3d	; 61
    1272:	9e b7       	in	r25, 0x3e	; 62
    1274:	08 96       	adiw	r24, 0x08	; 8
    1276:	0f b6       	in	r0, 0x3f	; 63
    1278:	f8 94       	cli
    127a:	9e bf       	out	0x3e, r25	; 62
    127c:	0f be       	out	0x3f, r0	; 63
    127e:	8d bf       	out	0x3d, r24	; 61
    1280:	d1 e0       	ldi	r29, 0x01	; 1
    1282:	44 c0       	rjmp	.+136    	; 0x130c <_ZN3i2c4readEhhPhh+0xfc>
    1284:	84 e9       	ldi	r24, 0x94	; 148
    1286:	80 93 bc 00 	sts	0x00BC, r24
    128a:	c7 01       	movw	r24, r14
    128c:	0e 94 fa 07 	call	0xff4	; 0xff4 <_ZN3i2c7restartEv>
    1290:	c1 60       	ori	r28, 0x01	; 1
    1292:	6c 2f       	mov	r22, r28
    1294:	c7 01       	movw	r24, r14
    1296:	0e 94 45 08 	call	0x108a	; 0x108a <_ZN3i2c10write_byteEh>
    129a:	88 23       	and	r24, r24
    129c:	19 f0       	breq	.+6      	; 0x12a4 <_ZN3i2c4readEhhPhh+0x94>
    129e:	02 30       	cpi	r16, 0x02	; 2
    12a0:	d8 f4       	brcc	.+54     	; 0x12d8 <_ZN3i2c4readEhhPhh+0xc8>
    12a2:	2a c0       	rjmp	.+84     	; 0x12f8 <_ZN3i2c4readEhhPhh+0xe8>
    12a4:	1f 92       	push	r1
    12a6:	cf 93       	push	r28
    12a8:	84 e2       	ldi	r24, 0x24	; 36
    12aa:	94 e0       	ldi	r25, 0x04	; 4
    12ac:	9f 93       	push	r25
    12ae:	8f 93       	push	r24
    12b0:	87 ec       	ldi	r24, 0xC7	; 199
    12b2:	95 e0       	ldi	r25, 0x05	; 5
    12b4:	9f 93       	push	r25
    12b6:	8f 93       	push	r24
    12b8:	0e 94 74 12 	call	0x24e8	; 0x24e8 <sprintf>
    12bc:	67 ec       	ldi	r22, 0xC7	; 199
    12be:	75 e0       	ldi	r23, 0x05	; 5
    12c0:	f7 01       	movw	r30, r14
    12c2:	80 81       	ld	r24, Z
    12c4:	91 81       	ldd	r25, Z+1	; 0x01
    12c6:	0e 94 ff 0e 	call	0x1dfe	; 0x1dfe <_ZN6serial4sendEPc>
    12ca:	0f 90       	pop	r0
    12cc:	0f 90       	pop	r0
    12ce:	0f 90       	pop	r0
    12d0:	0f 90       	pop	r0
    12d2:	0f 90       	pop	r0
    12d4:	0f 90       	pop	r0
    12d6:	1a c0       	rjmp	.+52     	; 0x130c <_ZN3i2c4readEhhPhh+0xfc>
    12d8:	e6 01       	movw	r28, r12
    12da:	02 50       	subi	r16, 0x02	; 2
    12dc:	10 e0       	ldi	r17, 0x00	; 0
    12de:	0f 5f       	subi	r16, 0xFF	; 255
    12e0:	1f 4f       	sbci	r17, 0xFF	; 255
    12e2:	c0 0e       	add	r12, r16
    12e4:	d1 1e       	adc	r13, r17
    12e6:	86 01       	movw	r16, r12
    12e8:	61 e0       	ldi	r22, 0x01	; 1
    12ea:	c7 01       	movw	r24, r14
    12ec:	0e 94 8f 08 	call	0x111e	; 0x111e <_ZN3i2c9read_byteEb>
    12f0:	89 93       	st	Y+, r24
    12f2:	c0 17       	cp	r28, r16
    12f4:	d1 07       	cpc	r29, r17
    12f6:	c1 f7       	brne	.-16     	; 0x12e8 <_ZN3i2c4readEhhPhh+0xd8>
    12f8:	60 e0       	ldi	r22, 0x00	; 0
    12fa:	c7 01       	movw	r24, r14
    12fc:	0e 94 8f 08 	call	0x111e	; 0x111e <_ZN3i2c9read_byteEb>
    1300:	f6 01       	movw	r30, r12
    1302:	80 83       	st	Z, r24
    1304:	84 e9       	ldi	r24, 0x94	; 148
    1306:	80 93 bc 00 	sts	0x00BC, r24
    130a:	d0 e0       	ldi	r29, 0x00	; 0
    130c:	8d 2f       	mov	r24, r29
    130e:	df 91       	pop	r29
    1310:	cf 91       	pop	r28
    1312:	1f 91       	pop	r17
    1314:	0f 91       	pop	r16
    1316:	ff 90       	pop	r15
    1318:	ef 90       	pop	r14
    131a:	df 90       	pop	r13
    131c:	cf 90       	pop	r12
    131e:	08 95       	ret

00001320 <_ZN3LCD11lcd_commandEh>:
 * Description:	This method sends a command to the LCD
 * 
 * Parameters:	data - the command to be executed
 ****************************************************************************/
void LCD::lcd_command(uint8_t data) {
	PORTC &= ~(1 << A0);
    1320:	42 98       	cbi	0x08, 2	; 8
 * Description:	This method writes data to a SPI device.
 * 
 * Parameters:	data - data to write using the SPI protocol
 ****************************************************************************/
inline void LCD::spiwrite(uint8_t data) {
	PORTB &= ~(1 << SS);
    1322:	2a 98       	cbi	0x05, 2	; 5
	SPDR = data;
    1324:	6e bd       	out	0x2e, r22	; 46
	while (!(SPSR & (1<<SPIF)));
    1326:	0d b4       	in	r0, 0x2d	; 45
    1328:	07 fe       	sbrs	r0, 7
    132a:	fd cf       	rjmp	.-6      	; 0x1326 <_ZN3LCD11lcd_commandEh+0x6>
	PORTB |= (1 << SS);
    132c:	2a 9a       	sbi	0x05, 2	; 5
    132e:	08 95       	ret

00001330 <_ZN3LCD8lcd_initEv>:

/*****************************************************************************
 * Method:		lcd_init
 * Description:	This method initializes the LCD for proper functionality
 ****************************************************************************/
void LCD::lcd_init(void){
    1330:	cf 93       	push	r28
    1332:	df 93       	push	r29
    1334:	ec 01       	movw	r28, r24
	// toggle RST low to reset; SS low so LCD will listen
	PORTB &= ~(1 << SS);
    1336:	2a 98       	cbi	0x05, 2	; 5
	PORTC &= ~(1 << RST);
    1338:	43 98       	cbi	0x08, 3	; 8
	#else
		//round up by default
		__ticks_dc = (uint32_t)(ceil(fabs(__tmp)));
	#endif

	__builtin_avr_delay_cycles(__ticks_dc);
    133a:	2f ef       	ldi	r18, 0xFF	; 255
    133c:	89 e6       	ldi	r24, 0x69	; 105
    133e:	98 e1       	ldi	r25, 0x18	; 24
    1340:	21 50       	subi	r18, 0x01	; 1
    1342:	80 40       	sbci	r24, 0x00	; 0
    1344:	90 40       	sbci	r25, 0x00	; 0
    1346:	e1 f7       	brne	.-8      	; 0x1340 <_ZN3LCD8lcd_initEv+0x10>
    1348:	00 c0       	rjmp	.+0      	; 0x134a <_ZN3LCD8lcd_initEv+0x1a>
    134a:	00 00       	nop
	_delay_ms(500);
	
	PORTC |= (1 << RST);
    134c:	43 9a       	sbi	0x08, 3	; 8
	PORTB |= (1 << SS);
    134e:	2a 9a       	sbi	0x05, 2	; 5

	// ADC select
	lcd_command(CMD_SET_ADC_NORMAL);
    1350:	60 ea       	ldi	r22, 0xA0	; 160
    1352:	ce 01       	movw	r24, r28
    1354:	0e 94 90 09 	call	0x1320	; 0x1320 <_ZN3LCD11lcd_commandEh>
	// SHL select
	lcd_command(CMD_SET_COM_NORMAL);
    1358:	60 ec       	ldi	r22, 0xC0	; 192
    135a:	ce 01       	movw	r24, r28
    135c:	0e 94 90 09 	call	0x1320	; 0x1320 <_ZN3LCD11lcd_commandEh>
	// LCD bias select
	lcd_command(CMD_SET_BIAS_7);
    1360:	63 ea       	ldi	r22, 0xA3	; 163
    1362:	ce 01       	movw	r24, r28
    1364:	0e 94 90 09 	call	0x1320	; 0x1320 <_ZN3LCD11lcd_commandEh>
	// Initial display line
	lcd_command(CMD_SET_DISP_START_LINE);
    1368:	60 e4       	ldi	r22, 0x40	; 64
    136a:	ce 01       	movw	r24, r28
    136c:	0e 94 90 09 	call	0x1320	; 0x1320 <_ZN3LCD11lcd_commandEh>

	// turn on voltage converter (VC=1, VR=0, VF=0)
	lcd_command(CMD_SET_POWER_CONTROL | 0x4);
    1370:	6c e2       	ldi	r22, 0x2C	; 44
    1372:	ce 01       	movw	r24, r28
    1374:	0e 94 90 09 	call	0x1320	; 0x1320 <_ZN3LCD11lcd_commandEh>
    1378:	2f ef       	ldi	r18, 0xFF	; 255
    137a:	80 e7       	ldi	r24, 0x70	; 112
    137c:	92 e0       	ldi	r25, 0x02	; 2
    137e:	21 50       	subi	r18, 0x01	; 1
    1380:	80 40       	sbci	r24, 0x00	; 0
    1382:	90 40       	sbci	r25, 0x00	; 0
    1384:	e1 f7       	brne	.-8      	; 0x137e <_ZN3LCD8lcd_initEv+0x4e>
    1386:	00 c0       	rjmp	.+0      	; 0x1388 <_ZN3LCD8lcd_initEv+0x58>
    1388:	00 00       	nop
	// wait for 50% rising
	_delay_ms(50);

	// turn on voltage regulator (VC=1, VR=1, VF=0)
	lcd_command(CMD_SET_POWER_CONTROL | 0x6);
    138a:	6e e2       	ldi	r22, 0x2E	; 46
    138c:	ce 01       	movw	r24, r28
    138e:	0e 94 90 09 	call	0x1320	; 0x1320 <_ZN3LCD11lcd_commandEh>
    1392:	2f e7       	ldi	r18, 0x7F	; 127
    1394:	89 ea       	ldi	r24, 0xA9	; 169
    1396:	93 e0       	ldi	r25, 0x03	; 3
    1398:	21 50       	subi	r18, 0x01	; 1
    139a:	80 40       	sbci	r24, 0x00	; 0
    139c:	90 40       	sbci	r25, 0x00	; 0
    139e:	e1 f7       	brne	.-8      	; 0x1398 <_ZN3LCD8lcd_initEv+0x68>
    13a0:	00 c0       	rjmp	.+0      	; 0x13a2 <_ZN3LCD8lcd_initEv+0x72>
    13a2:	00 00       	nop
	// wait >=50ms
	_delay_ms(75);

	// turn on voltage follower (VC=1, VR=1, VF=1)
	lcd_command(CMD_SET_POWER_CONTROL | 0x7);
    13a4:	6f e2       	ldi	r22, 0x2F	; 47
    13a6:	ce 01       	movw	r24, r28
    13a8:	0e 94 90 09 	call	0x1320	; 0x1320 <_ZN3LCD11lcd_commandEh>
    13ac:	8f e3       	ldi	r24, 0x3F	; 63
    13ae:	9c e9       	ldi	r25, 0x9C	; 156
    13b0:	01 97       	sbiw	r24, 0x01	; 1
    13b2:	f1 f7       	brne	.-4      	; 0x13b0 <_ZN3LCD8lcd_initEv+0x80>
    13b4:	00 c0       	rjmp	.+0      	; 0x13b6 <_ZN3LCD8lcd_initEv+0x86>
    13b6:	00 00       	nop
	// wait
	_delay_ms(10);

	// set lcd operating voltage (regulator resistor, ref voltage resistor)
	lcd_command(CMD_SET_RESISTOR_RATIO | 0x4);
    13b8:	64 e2       	ldi	r22, 0x24	; 36
    13ba:	ce 01       	movw	r24, r28
    13bc:	0e 94 90 09 	call	0x1320	; 0x1320 <_ZN3LCD11lcd_commandEh>
}
    13c0:	df 91       	pop	r29
    13c2:	cf 91       	pop	r28
    13c4:	08 95       	ret

000013c6 <_ZN3LCD18lcd_set_brightnessEh>:
 * Method:		lcd_set_brightness
 * Description:	This method sets the brightness of the LCD
 * 
 * Parameters:	val - the new bightness value of the LCD
 ****************************************************************************/
void LCD::lcd_set_brightness(uint8_t val) {
    13c6:	0f 93       	push	r16
    13c8:	1f 93       	push	r17
    13ca:	cf 93       	push	r28
    13cc:	8c 01       	movw	r16, r24
    13ce:	c6 2f       	mov	r28, r22
	lcd_command(CMD_SET_VOLUME_FIRST);
    13d0:	61 e8       	ldi	r22, 0x81	; 129
    13d2:	0e 94 90 09 	call	0x1320	; 0x1320 <_ZN3LCD11lcd_commandEh>
	lcd_command(CMD_SET_VOLUME_SECOND | (val & 0x3f));
    13d6:	6c 2f       	mov	r22, r28
    13d8:	6f 73       	andi	r22, 0x3F	; 63
    13da:	c8 01       	movw	r24, r16
    13dc:	0e 94 90 09 	call	0x1320	; 0x1320 <_ZN3LCD11lcd_commandEh>
}
    13e0:	cf 91       	pop	r28
    13e2:	1f 91       	pop	r17
    13e4:	0f 91       	pop	r16
    13e6:	08 95       	ret

000013e8 <_ZN3LCD8lcd_dataEh>:
 * Description:	This method sends data to the LCD
 * 
 * Parameters:	data - the data being sent to the LCD
 ****************************************************************************/
void LCD::lcd_data(uint8_t data) {
	PORTC |= (1 << A0);
    13e8:	42 9a       	sbi	0x08, 2	; 8
 * Description:	This method writes data to a SPI device.
 * 
 * Parameters:	data - data to write using the SPI protocol
 ****************************************************************************/
inline void LCD::spiwrite(uint8_t data) {
	PORTB &= ~(1 << SS);
    13ea:	2a 98       	cbi	0x05, 2	; 5
	SPDR = data;
    13ec:	6e bd       	out	0x2e, r22	; 46
	while (!(SPSR & (1<<SPIF)));
    13ee:	0d b4       	in	r0, 0x2d	; 45
    13f0:	07 fe       	sbrs	r0, 7
    13f2:	fd cf       	rjmp	.-6      	; 0x13ee <_ZN3LCD8lcd_dataEh+0x6>
	PORTB |= (1 << SS);
    13f4:	2a 9a       	sbi	0x05, 2	; 5
    13f6:	08 95       	ret

000013f8 <_ZN3LCD12write_bufferEv>:

/*****************************************************************************
 * Method:		write_buffer
 * Description:	This method writes the buffer to the LCD
 ****************************************************************************/
void LCD::write_buffer(/*uint8_t *buffer*/) {
    13f8:	af 92       	push	r10
    13fa:	bf 92       	push	r11
    13fc:	cf 92       	push	r12
    13fe:	df 92       	push	r13
    1400:	ef 92       	push	r14
    1402:	ff 92       	push	r15
    1404:	0f 93       	push	r16
    1406:	1f 93       	push	r17
    1408:	cf 93       	push	r28
    140a:	df 93       	push	r29
    140c:	8c 01       	movw	r16, r24
    140e:	6c 01       	movw	r12, r24
    1410:	ec 01       	movw	r28, r24
    1412:	28 96       	adiw	r28, 0x08	; 8
    1414:	5c 01       	movw	r10, r24
    1416:	88 ef       	ldi	r24, 0xF8	; 248
    1418:	a8 1a       	sub	r10, r24
    141a:	8b ef       	ldi	r24, 0xFB	; 251
    141c:	b8 0a       	sbc	r11, r24
	uint8_t data, page;

	for(page = 0; page < 8; page++) {

		lcd_command(CMD_SET_PAGE | pagemap[page]);
    141e:	f6 01       	movw	r30, r12
    1420:	61 91       	ld	r22, Z+
    1422:	6f 01       	movw	r12, r30
    1424:	60 6b       	ori	r22, 0xB0	; 176
    1426:	c8 01       	movw	r24, r16
    1428:	0e 94 90 09 	call	0x1320	; 0x1320 <_ZN3LCD11lcd_commandEh>
		lcd_command(CMD_SET_COLUMN_LOWER | (0x0 & 0xf));
    142c:	60 e0       	ldi	r22, 0x00	; 0
    142e:	c8 01       	movw	r24, r16
    1430:	0e 94 90 09 	call	0x1320	; 0x1320 <_ZN3LCD11lcd_commandEh>
		lcd_command(CMD_SET_COLUMN_UPPER | ((0x0 >> 4) & 0xf));
    1434:	60 e1       	ldi	r22, 0x10	; 16
    1436:	c8 01       	movw	r24, r16
    1438:	0e 94 90 09 	call	0x1320	; 0x1320 <_ZN3LCD11lcd_commandEh>
		lcd_command(CMD_RMW);
    143c:	60 ee       	ldi	r22, 0xE0	; 224
    143e:	c8 01       	movw	r24, r16
    1440:	0e 94 90 09 	call	0x1320	; 0x1320 <_ZN3LCD11lcd_commandEh>
		lcd_data(0xff);
    1444:	6f ef       	ldi	r22, 0xFF	; 255
    1446:	c8 01       	movw	r24, r16
    1448:	0e 94 f4 09 	call	0x13e8	; 0x13e8 <_ZN3LCD8lcd_dataEh>
    144c:	7e 01       	movw	r14, r28
    144e:	f0 e8       	ldi	r31, 0x80	; 128
    1450:	ef 0e       	add	r14, r31
    1452:	f1 1c       	adc	r15, r1
		
		for(data = 0; data < 128; data++) {
			lcd_data(buff[(128*page)+data]);
    1454:	69 91       	ld	r22, Y+
    1456:	c8 01       	movw	r24, r16
    1458:	0e 94 f4 09 	call	0x13e8	; 0x13e8 <_ZN3LCD8lcd_dataEh>
		lcd_command(CMD_SET_COLUMN_LOWER | (0x0 & 0xf));
		lcd_command(CMD_SET_COLUMN_UPPER | ((0x0 >> 4) & 0xf));
		lcd_command(CMD_RMW);
		lcd_data(0xff);
		
		for(data = 0; data < 128; data++) {
    145c:	ce 15       	cp	r28, r14
    145e:	df 05       	cpc	r29, r15
    1460:	c9 f7       	brne	.-14     	; 0x1454 <_ZN3LCD12write_bufferEv+0x5c>
    1462:	e7 01       	movw	r28, r14
 * Description:	This method writes the buffer to the LCD
 ****************************************************************************/
void LCD::write_buffer(/*uint8_t *buffer*/) {
	uint8_t data, page;

	for(page = 0; page < 8; page++) {
    1464:	ae 14       	cp	r10, r14
    1466:	bf 04       	cpc	r11, r15
    1468:	d1 f6       	brne	.-76     	; 0x141e <_ZN3LCD12write_bufferEv+0x26>
		
		for(data = 0; data < 128; data++) {
			lcd_data(buff[(128*page)+data]);
		}
	}
}
    146a:	df 91       	pop	r29
    146c:	cf 91       	pop	r28
    146e:	1f 91       	pop	r17
    1470:	0f 91       	pop	r16
    1472:	ff 90       	pop	r15
    1474:	ef 90       	pop	r14
    1476:	df 90       	pop	r13
    1478:	cf 90       	pop	r12
    147a:	bf 90       	pop	r11
    147c:	af 90       	pop	r10
    147e:	08 95       	ret

00001480 <_ZN3LCD9setup_lcdEv>:

/*****************************************************************************
 * Method:		setup_lcd
 * Description:	This method sets up the LCD to display output
 ****************************************************************************/
void LCD::setup_lcd(void){
    1480:	cf 93       	push	r28
    1482:	df 93       	push	r29
    1484:	ec 01       	movw	r28, r24
	lcd_init();
    1486:	0e 94 98 09 	call	0x1330	; 0x1330 <_ZN3LCD8lcd_initEv>

	lcd_command(CMD_DISPLAY_ON);
    148a:	6f ea       	ldi	r22, 0xAF	; 175
    148c:	ce 01       	movw	r24, r28
    148e:	0e 94 90 09 	call	0x1320	; 0x1320 <_ZN3LCD11lcd_commandEh>

	lcd_set_brightness(0x18);
    1492:	68 e1       	ldi	r22, 0x18	; 24
    1494:	ce 01       	movw	r24, r28
    1496:	0e 94 e3 09 	call	0x13c6	; 0x13c6 <_ZN3LCD18lcd_set_brightnessEh>

	write_buffer();
    149a:	ce 01       	movw	r24, r28
    149c:	0e 94 fc 09 	call	0x13f8	; 0x13f8 <_ZN3LCD12write_bufferEv>
}
    14a0:	df 91       	pop	r29
    14a2:	cf 91       	pop	r28
    14a4:	08 95       	ret

000014a6 <_ZN3LCD12clear_bufferEv>:
/*****************************************************************************
 * Method:		clear_buffer
 * Description:	This method clears the buffer
 ****************************************************************************/
void LCD::clear_buffer(void) {
  memset(buff, 0, 1024);
    14a6:	08 96       	adiw	r24, 0x08	; 8
    14a8:	20 e0       	ldi	r18, 0x00	; 0
    14aa:	34 e0       	ldi	r19, 0x04	; 4
    14ac:	fc 01       	movw	r30, r24
    14ae:	a9 01       	movw	r20, r18
    14b0:	11 92       	st	Z+, r1
    14b2:	41 50       	subi	r20, 0x01	; 1
    14b4:	50 40       	sbci	r21, 0x00	; 0
    14b6:	e1 f7       	brne	.-8      	; 0x14b0 <_ZN3LCD12clear_bufferEv+0xa>
    14b8:	08 95       	ret

000014ba <_ZN3LCDC1Ev>:
/*****************************************************************************
 * Method:		LCD
 * Description:	This constructor sets up the LCD and the SPI protocol 
 *				on the ATmega328P			
 ****************************************************************************/
LCD::LCD (void)
    14ba:	cf 93       	push	r28
    14bc:	df 93       	push	r29
    14be:	ec 01       	movw	r28, r24
{

	DDRB |= (1 << MOSI) | (1 << SCK) | (1 << SS);
    14c0:	94 b1       	in	r25, 0x04	; 4
    14c2:	9c 62       	ori	r25, 0x2C	; 44
    14c4:	94 b9       	out	0x04, r25	; 4
	DDRC |= (1 << A0) | (1 << RST);
    14c6:	97 b1       	in	r25, 0x07	; 7
    14c8:	9c 60       	ori	r25, 0x0C	; 12
    14ca:	97 b9       	out	0x07, r25	; 7

	clear_buffer();
    14cc:	ce 01       	movw	r24, r28
    14ce:	0e 94 53 0a 	call	0x14a6	; 0x14a6 <_ZN3LCD12clear_bufferEv>
 * Method:		spi_init
 * Description:	This method initializes the SPI Protocol using the appropriate
 *				registers
 ****************************************************************************/
void LCD::spi_init(void){
	SPCR = (1 << SPE) | (1 << MSTR);
    14d2:	80 e5       	ldi	r24, 0x50	; 80
    14d4:	8c bd       	out	0x2c, r24	; 44
	PORTB = (1 << SS);						// make sure SS is high
    14d6:	84 e0       	ldi	r24, 0x04	; 4
    14d8:	85 b9       	out	0x05, r24	; 5
	DDRC |= (1 << A0) | (1 << RST);

	clear_buffer();

	spi_init();
	setup_lcd();
    14da:	ce 01       	movw	r24, r28
    14dc:	0e 94 40 0a 	call	0x1480	; 0x1480 <_ZN3LCD9setup_lcdEv>

	EICRA = 0x03;
    14e0:	83 e0       	ldi	r24, 0x03	; 3
    14e2:	80 93 69 00 	sts	0x0069, r24
	EIMSK = 0x01;
    14e6:	81 e0       	ldi	r24, 0x01	; 1
    14e8:	8d bb       	out	0x1d, r24	; 29
	EIFR = 0x01;
    14ea:	8c bb       	out	0x1c, r24	; 28
}
    14ec:	df 91       	pop	r29
    14ee:	cf 91       	pop	r28
    14f0:	08 95       	ret

000014f2 <main>:
volatile uint8_t portd_hist = 0x00;
volatile uint8_t ln_1_tmr_cnt = 0;
volatile uint8_t ln_2_tmr_cnt = 0;

int main(void)
{
    14f2:	cf 93       	push	r28
    14f4:	df 93       	push	r29
    14f6:	cd b7       	in	r28, 0x3d	; 61
    14f8:	de b7       	in	r29, 0x3e	; 62
    14fa:	c3 56       	subi	r28, 0x63	; 99
    14fc:	d4 40       	sbci	r29, 0x04	; 4
    14fe:	0f b6       	in	r0, 0x3f	; 63
    1500:	f8 94       	cli
    1502:	de bf       	out	0x3e, r29	; 62
    1504:	0f be       	out	0x3f, r0	; 63
    1506:	cd bf       	out	0x3d, r28	; 61
	/* create serial object */
	serial ser_dev = serial(9600, 16000000);
    1508:	20 e0       	ldi	r18, 0x00	; 0
    150a:	34 e2       	ldi	r19, 0x24	; 36
    150c:	44 ef       	ldi	r20, 0xF4	; 244
    150e:	50 e0       	ldi	r21, 0x00	; 0
    1510:	60 e8       	ldi	r22, 0x80	; 128
    1512:	75 e2       	ldi	r23, 0x25	; 37
    1514:	ce 01       	movw	r24, r28
    1516:	82 5b       	subi	r24, 0xB2	; 178
    1518:	9b 4f       	sbci	r25, 0xFB	; 251
    151a:	0e 94 ec 0e 	call	0x1dd8	; 0x1dd8 <_ZN6serialC1Ejm>
	
	DBG(&ser_dev, "Creating and initializing all sensors...\r\n");
    151e:	8b e2       	ldi	r24, 0x2B	; 43
    1520:	e0 e4       	ldi	r30, 0x40	; 64
    1522:	f4 e0       	ldi	r31, 0x04	; 4
    1524:	a7 ec       	ldi	r26, 0xC7	; 199
    1526:	b5 e0       	ldi	r27, 0x05	; 5
    1528:	01 90       	ld	r0, Z+
    152a:	0d 92       	st	X+, r0
    152c:	8a 95       	dec	r24
    152e:	e1 f7       	brne	.-8      	; 0x1528 <main+0x36>
    1530:	67 ec       	ldi	r22, 0xC7	; 199
    1532:	75 e0       	ldi	r23, 0x05	; 5
    1534:	ce 01       	movw	r24, r28
    1536:	82 5b       	subi	r24, 0xB2	; 178
    1538:	9b 4f       	sbci	r25, 0xFB	; 251
    153a:	0e 94 ff 0e 	call	0x1dfe	; 0x1dfe <_ZN6serial4sendEPc>
	
	// create a i2c object 
	i2c my_i2c = i2c(&ser_dev);
    153e:	be 01       	movw	r22, r28
    1540:	62 5b       	subi	r22, 0xB2	; 178
    1542:	7b 4f       	sbci	r23, 0xFB	; 251
    1544:	ce 01       	movw	r24, r28
    1546:	8e 59       	subi	r24, 0x9E	; 158
    1548:	9b 4f       	sbci	r25, 0xFB	; 251
    154a:	0e 94 93 07 	call	0xf26	; 0xf26 <_ZN3i2cC1EP6serial>
	
	// create a BME280 object
	BME280 my_BME280 = BME280(&my_i2c, &ser_dev, 278);
    154e:	06 e1       	ldi	r16, 0x16	; 22
    1550:	11 e0       	ldi	r17, 0x01	; 1
    1552:	20 e0       	ldi	r18, 0x00	; 0
    1554:	30 e0       	ldi	r19, 0x00	; 0
    1556:	ae 01       	movw	r20, r28
    1558:	42 5b       	subi	r20, 0xB2	; 178
    155a:	5b 4f       	sbci	r21, 0xFB	; 251
    155c:	be 01       	movw	r22, r28
    155e:	6e 59       	subi	r22, 0x9E	; 158
    1560:	7b 4f       	sbci	r23, 0xFB	; 251
    1562:	ce 01       	movw	r24, r28
    1564:	87 5f       	subi	r24, 0xF7	; 247
    1566:	9b 4f       	sbci	r25, 0xFB	; 251
    1568:	0e 94 2e 06 	call	0xc5c	; 0xc5c <_ZN6BME280C1EP3i2cP6seriall>
	
	// create a water temperature sensor - surface
	oneWire my_oneWire_surface_temp = oneWire(&ser_dev, 3, ID_SURFACE_TEMP);
    156c:	22 e0       	ldi	r18, 0x02	; 2
    156e:	43 e0       	ldi	r20, 0x03	; 3
    1570:	be 01       	movw	r22, r28
    1572:	62 5b       	subi	r22, 0xB2	; 178
    1574:	7b 4f       	sbci	r23, 0xFB	; 251
    1576:	ce 01       	movw	r24, r28
    1578:	88 5a       	subi	r24, 0xA8	; 168
    157a:	9b 4f       	sbci	r25, 0xFB	; 251
    157c:	0e 94 12 0b 	call	0x1624	; 0x1624 <_ZN7oneWireC1EP6serialhh>
	
	// create a tilt-ball object
	TiltBall my_TiltBall = TiltBall(&ser_dev, 0);
    1580:	40 e0       	ldi	r20, 0x00	; 0
    1582:	be 01       	movw	r22, r28
    1584:	62 5b       	subi	r22, 0xB2	; 178
    1586:	7b 4f       	sbci	r23, 0xFB	; 251
    1588:	ce 01       	movw	r24, r28
    158a:	81 5a       	subi	r24, 0xA1	; 161
    158c:	9b 4f       	sbci	r25, 0xFB	; 251
    158e:	0e 94 23 0f 	call	0x1e46	; 0x1e46 <_ZN8TiltBallC1EP6serialh>
	
	// create a UVIndex sensor
	UVIndex my_UVIndex = UVIndex(&ser_dev, 7);
    1592:	47 e0       	ldi	r20, 0x07	; 7
    1594:	be 01       	movw	r22, r28
    1596:	62 5b       	subi	r22, 0xB2	; 178
    1598:	7b 4f       	sbci	r23, 0xFB	; 251
    159a:	ce 01       	movw	r24, r28
    159c:	84 5a       	subi	r24, 0xA4	; 164
    159e:	9b 4f       	sbci	r25, 0xFB	; 251
    15a0:	0e 94 b5 0f 	call	0x1f6a	; 0x1f6a <_ZN7UVIndexC1EP6serialh>
	
	// create a PIR sensor 
	PIR my_pir_ln1 = PIR(&ser_dev, LN_1_PIN);
    15a4:	47 e0       	ldi	r20, 0x07	; 7
    15a6:	be 01       	movw	r22, r28
    15a8:	62 5b       	subi	r22, 0xB2	; 178
    15aa:	7b 4f       	sbci	r23, 0xFB	; 251
    15ac:	ce 01       	movw	r24, r28
    15ae:	8c 5a       	subi	r24, 0xAC	; 172
    15b0:	9b 4f       	sbci	r25, 0xFB	; 251
    15b2:	0e 94 56 0d 	call	0x1aac	; 0x1aac <_ZN3PIRC1EP6serialh>
	
	// create LCD object
	LCD my_lcd = LCD();
    15b6:	ce 01       	movw	r24, r28
    15b8:	01 96       	adiw	r24, 0x01	; 1
    15ba:	0e 94 5d 0a 	call	0x14ba	; 0x14ba <_ZN3LCDC1Ev>
	
	DBG(&ser_dev, "All Sensors created!\r\n");
    15be:	87 e1       	ldi	r24, 0x17	; 23
    15c0:	eb e6       	ldi	r30, 0x6B	; 107
    15c2:	f4 e0       	ldi	r31, 0x04	; 4
    15c4:	a7 ec       	ldi	r26, 0xC7	; 199
    15c6:	b5 e0       	ldi	r27, 0x05	; 5
    15c8:	01 90       	ld	r0, Z+
    15ca:	0d 92       	st	X+, r0
    15cc:	8a 95       	dec	r24
    15ce:	e1 f7       	brne	.-8      	; 0x15c8 <main+0xd6>
    15d0:	67 ec       	ldi	r22, 0xC7	; 199
    15d2:	75 e0       	ldi	r23, 0x05	; 5
    15d4:	ce 01       	movw	r24, r28
    15d6:	82 5b       	subi	r24, 0xB2	; 178
    15d8:	9b 4f       	sbci	r25, 0xFB	; 251
    15da:	0e 94 ff 0e 	call	0x1dfe	; 0x1dfe <_ZN6serial4sendEPc>
	
    while (1) 
    {
		
		my_BME280.BME280Task();
    15de:	ce 01       	movw	r24, r28
    15e0:	87 5f       	subi	r24, 0xF7	; 247
    15e2:	9b 4f       	sbci	r25, 0xFB	; 251
    15e4:	0e 94 b6 06 	call	0xd6c	; 0xd6c <_ZN6BME28010BME280TaskEv>
		
		my_oneWire_surface_temp.oneWireTask();
    15e8:	ce 01       	movw	r24, r28
    15ea:	88 5a       	subi	r24, 0xA8	; 168
    15ec:	9b 4f       	sbci	r25, 0xFB	; 251
    15ee:	0e 94 61 0c 	call	0x18c2	; 0x18c2 <_ZN7oneWire11oneWireTaskEv>
		
		my_TiltBall.TiltBallTask();
    15f2:	ce 01       	movw	r24, r28
    15f4:	81 5a       	subi	r24, 0xA1	; 161
    15f6:	9b 4f       	sbci	r25, 0xFB	; 251
    15f8:	0e 94 53 0f 	call	0x1ea6	; 0x1ea6 <_ZN8TiltBall12TiltBallTaskEv>
				
		my_UVIndex.UVIndexTask();
    15fc:	ce 01       	movw	r24, r28
    15fe:	84 5a       	subi	r24, 0xA4	; 164
    1600:	9b 4f       	sbci	r25, 0xFB	; 251
    1602:	0e 94 10 10 	call	0x2020	; 0x2020 <_ZN7UVIndex11UVIndexTaskEv>
		
		my_pir_ln1.PIRTask();
    1606:	ce 01       	movw	r24, r28
    1608:	8c 5a       	subi	r24, 0xAC	; 172
    160a:	9b 4f       	sbci	r25, 0xFB	; 251
    160c:	0e 94 bc 0d 	call	0x1b78	; 0x1b78 <_ZN3PIR7PIRTaskEv>
    1610:	2f ef       	ldi	r18, 0xFF	; 255
    1612:	83 ed       	ldi	r24, 0xD3	; 211
    1614:	90 e3       	ldi	r25, 0x30	; 48
    1616:	21 50       	subi	r18, 0x01	; 1
    1618:	80 40       	sbci	r24, 0x00	; 0
    161a:	90 40       	sbci	r25, 0x00	; 0
    161c:	e1 f7       	brne	.-8      	; 0x1616 <main+0x124>
    161e:	00 c0       	rjmp	.+0      	; 0x1620 <main+0x12e>
    1620:	00 00       	nop
    1622:	dd cf       	rjmp	.-70     	; 0x15de <main+0xec>

00001624 <_ZN7oneWireC1EP6serialhh>:
    1624:	cf 93       	push	r28
    1626:	df 93       	push	r29
    1628:	ec 01       	movw	r28, r24
    162a:	79 83       	std	Y+1, r23	; 0x01
    162c:	68 83       	st	Y, r22
    162e:	4a 83       	std	Y+2, r20	; 0x02
    1630:	2b 83       	std	Y+3, r18	; 0x03
    1632:	2a b1       	in	r18, 0x0a	; 10
    1634:	81 e0       	ldi	r24, 0x01	; 1
    1636:	90 e0       	ldi	r25, 0x00	; 0
    1638:	02 c0       	rjmp	.+4      	; 0x163e <_ZN7oneWireC1EP6serialhh+0x1a>
    163a:	88 0f       	add	r24, r24
    163c:	99 1f       	adc	r25, r25
    163e:	4a 95       	dec	r20
    1640:	e2 f7       	brpl	.-8      	; 0x163a <_ZN7oneWireC1EP6serialhh+0x16>
    1642:	80 95       	com	r24
    1644:	82 23       	and	r24, r18
    1646:	8a b9       	out	0x0a, r24	; 10
    1648:	8b 81       	ldd	r24, Y+3	; 0x03
    164a:	1f 92       	push	r1
    164c:	8f 93       	push	r24
    164e:	82 e8       	ldi	r24, 0x82	; 130
    1650:	94 e0       	ldi	r25, 0x04	; 4
    1652:	9f 93       	push	r25
    1654:	8f 93       	push	r24
    1656:	87 ec       	ldi	r24, 0xC7	; 199
    1658:	95 e0       	ldi	r25, 0x05	; 5
    165a:	9f 93       	push	r25
    165c:	8f 93       	push	r24
    165e:	0e 94 74 12 	call	0x24e8	; 0x24e8 <sprintf>
    1662:	67 ec       	ldi	r22, 0xC7	; 199
    1664:	75 e0       	ldi	r23, 0x05	; 5
    1666:	88 81       	ld	r24, Y
    1668:	99 81       	ldd	r25, Y+1	; 0x01
    166a:	0e 94 ff 0e 	call	0x1dfe	; 0x1dfe <_ZN6serial4sendEPc>
    166e:	0f 90       	pop	r0
    1670:	0f 90       	pop	r0
    1672:	0f 90       	pop	r0
    1674:	0f 90       	pop	r0
    1676:	0f 90       	pop	r0
    1678:	0f 90       	pop	r0
    167a:	df 91       	pop	r29
    167c:	cf 91       	pop	r28
    167e:	08 95       	ret

00001680 <_ZN7oneWire5resetEv>:
    1680:	fc 01       	movw	r30, r24
    1682:	2a b1       	in	r18, 0x0a	; 10
    1684:	81 e0       	ldi	r24, 0x01	; 1
    1686:	90 e0       	ldi	r25, 0x00	; 0
    1688:	02 80       	ldd	r0, Z+2	; 0x02
    168a:	02 c0       	rjmp	.+4      	; 0x1690 <_ZN7oneWire5resetEv+0x10>
    168c:	88 0f       	add	r24, r24
    168e:	99 1f       	adc	r25, r25
    1690:	0a 94       	dec	r0
    1692:	e2 f7       	brpl	.-8      	; 0x168c <_ZN7oneWire5resetEv+0xc>
    1694:	80 95       	com	r24
    1696:	82 23       	and	r24, r18
    1698:	8a b9       	out	0x0a, r24	; 10
    169a:	4c e7       	ldi	r20, 0x7C	; 124
    169c:	03 c0       	rjmp	.+6      	; 0x16a4 <_ZN7oneWire5resetEv+0x24>
    169e:	41 50       	subi	r20, 0x01	; 1
    16a0:	09 f4       	brne	.+2      	; 0x16a4 <_ZN7oneWire5resetEv+0x24>
    16a2:	4e c0       	rjmp	.+156    	; 0x1740 <_ZN7oneWire5resetEv+0xc0>
	#else
		//round up by default
		__ticks_dc = (uint32_t)(ceil(fabs(__tmp)));
	#endif

	__builtin_avr_delay_cycles(__ticks_dc);
    16a4:	2a e0       	ldi	r18, 0x0A	; 10
    16a6:	2a 95       	dec	r18
    16a8:	f1 f7       	brne	.-4      	; 0x16a6 <_ZN7oneWire5resetEv+0x26>
    16aa:	00 c0       	rjmp	.+0      	; 0x16ac <_ZN7oneWire5resetEv+0x2c>
    16ac:	29 b1       	in	r18, 0x09	; 9
    16ae:	92 81       	ldd	r25, Z+2	; 0x02
    16b0:	69 2f       	mov	r22, r25
    16b2:	30 e0       	ldi	r19, 0x00	; 0
    16b4:	02 c0       	rjmp	.+4      	; 0x16ba <_ZN7oneWire5resetEv+0x3a>
    16b6:	35 95       	asr	r19
    16b8:	27 95       	ror	r18
    16ba:	9a 95       	dec	r25
    16bc:	e2 f7       	brpl	.-8      	; 0x16b6 <_ZN7oneWire5resetEv+0x36>
    16be:	20 ff       	sbrs	r18, 0
    16c0:	ee cf       	rjmp	.-36     	; 0x169e <_ZN7oneWire5resetEv+0x1e>
    16c2:	3b b1       	in	r19, 0x0b	; 11
    16c4:	81 e0       	ldi	r24, 0x01	; 1
    16c6:	90 e0       	ldi	r25, 0x00	; 0
    16c8:	ac 01       	movw	r20, r24
    16ca:	02 c0       	rjmp	.+4      	; 0x16d0 <_ZN7oneWire5resetEv+0x50>
    16cc:	44 0f       	add	r20, r20
    16ce:	55 1f       	adc	r21, r21
    16d0:	6a 95       	dec	r22
    16d2:	e2 f7       	brpl	.-8      	; 0x16cc <_ZN7oneWire5resetEv+0x4c>
    16d4:	24 2f       	mov	r18, r20
    16d6:	20 95       	com	r18
    16d8:	23 23       	and	r18, r19
    16da:	2b b9       	out	0x0b, r18	; 11
    16dc:	4a b1       	in	r20, 0x0a	; 10
    16de:	9c 01       	movw	r18, r24
    16e0:	02 80       	ldd	r0, Z+2	; 0x02
    16e2:	02 c0       	rjmp	.+4      	; 0x16e8 <_ZN7oneWire5resetEv+0x68>
    16e4:	22 0f       	add	r18, r18
    16e6:	33 1f       	adc	r19, r19
    16e8:	0a 94       	dec	r0
    16ea:	e2 f7       	brpl	.-8      	; 0x16e4 <_ZN7oneWire5resetEv+0x64>
    16ec:	24 2b       	or	r18, r20
    16ee:	2a b9       	out	0x0a, r18	; 10
    16f0:	af e7       	ldi	r26, 0x7F	; 127
    16f2:	b7 e0       	ldi	r27, 0x07	; 7
    16f4:	11 97       	sbiw	r26, 0x01	; 1
    16f6:	f1 f7       	brne	.-4      	; 0x16f4 <_ZN7oneWire5resetEv+0x74>
    16f8:	00 c0       	rjmp	.+0      	; 0x16fa <_ZN7oneWire5resetEv+0x7a>
    16fa:	00 00       	nop
    16fc:	2a b1       	in	r18, 0x0a	; 10
    16fe:	02 80       	ldd	r0, Z+2	; 0x02
    1700:	02 c0       	rjmp	.+4      	; 0x1706 <_ZN7oneWire5resetEv+0x86>
    1702:	88 0f       	add	r24, r24
    1704:	99 1f       	adc	r25, r25
    1706:	0a 94       	dec	r0
    1708:	e2 f7       	brpl	.-8      	; 0x1702 <_ZN7oneWire5resetEv+0x82>
    170a:	80 95       	com	r24
    170c:	82 23       	and	r24, r18
    170e:	8a b9       	out	0x0a, r24	; 10
    1710:	87 e1       	ldi	r24, 0x17	; 23
    1712:	91 e0       	ldi	r25, 0x01	; 1
    1714:	01 97       	sbiw	r24, 0x01	; 1
    1716:	f1 f7       	brne	.-4      	; 0x1714 <_ZN7oneWire5resetEv+0x94>
    1718:	00 c0       	rjmp	.+0      	; 0x171a <_ZN7oneWire5resetEv+0x9a>
    171a:	00 00       	nop
    171c:	89 b1       	in	r24, 0x09	; 9
    171e:	90 e0       	ldi	r25, 0x00	; 0
    1720:	02 80       	ldd	r0, Z+2	; 0x02
    1722:	02 c0       	rjmp	.+4      	; 0x1728 <_ZN7oneWire5resetEv+0xa8>
    1724:	95 95       	asr	r25
    1726:	87 95       	ror	r24
    1728:	0a 94       	dec	r0
    172a:	e2 f7       	brpl	.-8      	; 0x1724 <_ZN7oneWire5resetEv+0xa4>
    172c:	a1 e0       	ldi	r26, 0x01	; 1
    172e:	8a 27       	eor	r24, r26
    1730:	81 70       	andi	r24, 0x01	; 1
    1732:	e7 e6       	ldi	r30, 0x67	; 103
    1734:	f6 e0       	ldi	r31, 0x06	; 6
    1736:	31 97       	sbiw	r30, 0x01	; 1
    1738:	f1 f7       	brne	.-4      	; 0x1736 <_ZN7oneWire5resetEv+0xb6>
    173a:	00 c0       	rjmp	.+0      	; 0x173c <_ZN7oneWire5resetEv+0xbc>
    173c:	00 00       	nop
    173e:	08 95       	ret
    1740:	80 e0       	ldi	r24, 0x00	; 0
    1742:	08 95       	ret

00001744 <_ZN7oneWire7write_1Ev>:
    1744:	fc 01       	movw	r30, r24
    1746:	9b b1       	in	r25, 0x0b	; 11
    1748:	21 e0       	ldi	r18, 0x01	; 1
    174a:	30 e0       	ldi	r19, 0x00	; 0
    174c:	a9 01       	movw	r20, r18
    174e:	02 80       	ldd	r0, Z+2	; 0x02
    1750:	02 c0       	rjmp	.+4      	; 0x1756 <_ZN7oneWire7write_1Ev+0x12>
    1752:	44 0f       	add	r20, r20
    1754:	55 1f       	adc	r21, r21
    1756:	0a 94       	dec	r0
    1758:	e2 f7       	brpl	.-8      	; 0x1752 <_ZN7oneWire7write_1Ev+0xe>
    175a:	84 2f       	mov	r24, r20
    175c:	80 95       	com	r24
    175e:	89 23       	and	r24, r25
    1760:	8b b9       	out	0x0b, r24	; 11
    1762:	4a b1       	in	r20, 0x0a	; 10
    1764:	c9 01       	movw	r24, r18
    1766:	02 80       	ldd	r0, Z+2	; 0x02
    1768:	02 c0       	rjmp	.+4      	; 0x176e <_ZN7oneWire7write_1Ev+0x2a>
    176a:	88 0f       	add	r24, r24
    176c:	99 1f       	adc	r25, r25
    176e:	0a 94       	dec	r0
    1770:	e2 f7       	brpl	.-8      	; 0x176a <_ZN7oneWire7write_1Ev+0x26>
    1772:	84 2b       	or	r24, r20
    1774:	8a b9       	out	0x0a, r24	; 10
    1776:	85 e3       	ldi	r24, 0x35	; 53
    1778:	8a 95       	dec	r24
    177a:	f1 f7       	brne	.-4      	; 0x1778 <_ZN7oneWire7write_1Ev+0x34>
    177c:	00 00       	nop
    177e:	9a b1       	in	r25, 0x0a	; 10
    1780:	02 80       	ldd	r0, Z+2	; 0x02
    1782:	02 c0       	rjmp	.+4      	; 0x1788 <_ZN7oneWire7write_1Ev+0x44>
    1784:	22 0f       	add	r18, r18
    1786:	33 1f       	adc	r19, r19
    1788:	0a 94       	dec	r0
    178a:	e2 f7       	brpl	.-8      	; 0x1784 <_ZN7oneWire7write_1Ev+0x40>
    178c:	20 95       	com	r18
    178e:	29 23       	and	r18, r25
    1790:	2a b9       	out	0x0a, r18	; 10
    1792:	8b ed       	ldi	r24, 0xDB	; 219
    1794:	90 e0       	ldi	r25, 0x00	; 0
    1796:	01 97       	sbiw	r24, 0x01	; 1
    1798:	f1 f7       	brne	.-4      	; 0x1796 <_ZN7oneWire7write_1Ev+0x52>
    179a:	00 c0       	rjmp	.+0      	; 0x179c <_ZN7oneWire7write_1Ev+0x58>
    179c:	00 00       	nop
    179e:	08 95       	ret

000017a0 <_ZN7oneWire7write_0Ev>:
    17a0:	fc 01       	movw	r30, r24
    17a2:	9b b1       	in	r25, 0x0b	; 11
    17a4:	21 e0       	ldi	r18, 0x01	; 1
    17a6:	30 e0       	ldi	r19, 0x00	; 0
    17a8:	a9 01       	movw	r20, r18
    17aa:	02 80       	ldd	r0, Z+2	; 0x02
    17ac:	02 c0       	rjmp	.+4      	; 0x17b2 <_ZN7oneWire7write_0Ev+0x12>
    17ae:	44 0f       	add	r20, r20
    17b0:	55 1f       	adc	r21, r21
    17b2:	0a 94       	dec	r0
    17b4:	e2 f7       	brpl	.-8      	; 0x17ae <_ZN7oneWire7write_0Ev+0xe>
    17b6:	84 2f       	mov	r24, r20
    17b8:	80 95       	com	r24
    17ba:	89 23       	and	r24, r25
    17bc:	8b b9       	out	0x0b, r24	; 11
    17be:	4a b1       	in	r20, 0x0a	; 10
    17c0:	c9 01       	movw	r24, r18
    17c2:	02 80       	ldd	r0, Z+2	; 0x02
    17c4:	02 c0       	rjmp	.+4      	; 0x17ca <_ZN7oneWire7write_0Ev+0x2a>
    17c6:	88 0f       	add	r24, r24
    17c8:	99 1f       	adc	r25, r25
    17ca:	0a 94       	dec	r0
    17cc:	e2 f7       	brpl	.-8      	; 0x17c6 <_ZN7oneWire7write_0Ev+0x26>
    17ce:	84 2b       	or	r24, r20
    17d0:	8a b9       	out	0x0a, r24	; 10
    17d2:	83 e0       	ldi	r24, 0x03	; 3
    17d4:	91 e0       	ldi	r25, 0x01	; 1
    17d6:	01 97       	sbiw	r24, 0x01	; 1
    17d8:	f1 f7       	brne	.-4      	; 0x17d6 <_ZN7oneWire7write_0Ev+0x36>
    17da:	00 c0       	rjmp	.+0      	; 0x17dc <_ZN7oneWire7write_0Ev+0x3c>
    17dc:	00 00       	nop
    17de:	9a b1       	in	r25, 0x0a	; 10
    17e0:	02 80       	ldd	r0, Z+2	; 0x02
    17e2:	02 c0       	rjmp	.+4      	; 0x17e8 <_ZN7oneWire7write_0Ev+0x48>
    17e4:	22 0f       	add	r18, r18
    17e6:	33 1f       	adc	r19, r19
    17e8:	0a 94       	dec	r0
    17ea:	e2 f7       	brpl	.-8      	; 0x17e4 <_ZN7oneWire7write_0Ev+0x44>
    17ec:	20 95       	com	r18
    17ee:	29 23       	and	r18, r25
    17f0:	2a b9       	out	0x0a, r18	; 10
    17f2:	9a e1       	ldi	r25, 0x1A	; 26
    17f4:	9a 95       	dec	r25
    17f6:	f1 f7       	brne	.-4      	; 0x17f4 <_ZN7oneWire7write_0Ev+0x54>
    17f8:	00 c0       	rjmp	.+0      	; 0x17fa <_ZN7oneWire7write_0Ev+0x5a>
    17fa:	08 95       	ret

000017fc <_ZN7oneWire10write_byteEh>:
    17fc:	0f 93       	push	r16
    17fe:	1f 93       	push	r17
    1800:	cf 93       	push	r28
    1802:	df 93       	push	r29
    1804:	8c 01       	movw	r16, r24
    1806:	d6 2f       	mov	r29, r22
    1808:	c8 e0       	ldi	r28, 0x08	; 8
    180a:	d0 ff       	sbrs	r29, 0
    180c:	04 c0       	rjmp	.+8      	; 0x1816 <_ZN7oneWire10write_byteEh+0x1a>
    180e:	c8 01       	movw	r24, r16
    1810:	0e 94 a2 0b 	call	0x1744	; 0x1744 <_ZN7oneWire7write_1Ev>
    1814:	03 c0       	rjmp	.+6      	; 0x181c <_ZN7oneWire10write_byteEh+0x20>
    1816:	c8 01       	movw	r24, r16
    1818:	0e 94 d0 0b 	call	0x17a0	; 0x17a0 <_ZN7oneWire7write_0Ev>
    181c:	d6 95       	lsr	r29
    181e:	c1 50       	subi	r28, 0x01	; 1
    1820:	a1 f7       	brne	.-24     	; 0x180a <_ZN7oneWire10write_byteEh+0xe>
    1822:	df 91       	pop	r29
    1824:	cf 91       	pop	r28
    1826:	1f 91       	pop	r17
    1828:	0f 91       	pop	r16
    182a:	08 95       	ret

0000182c <_ZN7oneWire9read_byteEv>:
    182c:	1f 93       	push	r17
    182e:	cf 93       	push	r28
    1830:	df 93       	push	r29
    1832:	fc 01       	movw	r30, r24
    1834:	a8 e0       	ldi	r26, 0x08	; 8
    1836:	b0 e0       	ldi	r27, 0x00	; 0
    1838:	11 e0       	ldi	r17, 0x01	; 1
    183a:	80 e0       	ldi	r24, 0x00	; 0
    183c:	21 e0       	ldi	r18, 0x01	; 1
    183e:	30 e0       	ldi	r19, 0x00	; 0
    1840:	4b b1       	in	r20, 0x0b	; 11
    1842:	b9 01       	movw	r22, r18
    1844:	02 80       	ldd	r0, Z+2	; 0x02
    1846:	02 c0       	rjmp	.+4      	; 0x184c <_ZN7oneWire9read_byteEv+0x20>
    1848:	66 0f       	add	r22, r22
    184a:	77 1f       	adc	r23, r23
    184c:	0a 94       	dec	r0
    184e:	e2 f7       	brpl	.-8      	; 0x1848 <_ZN7oneWire9read_byteEv+0x1c>
    1850:	96 2f       	mov	r25, r22
    1852:	90 95       	com	r25
    1854:	94 23       	and	r25, r20
    1856:	9b b9       	out	0x0b, r25	; 11
    1858:	9a b1       	in	r25, 0x0a	; 10
    185a:	a9 01       	movw	r20, r18
    185c:	02 80       	ldd	r0, Z+2	; 0x02
    185e:	02 c0       	rjmp	.+4      	; 0x1864 <_ZN7oneWire9read_byteEv+0x38>
    1860:	44 0f       	add	r20, r20
    1862:	55 1f       	adc	r21, r21
    1864:	0a 94       	dec	r0
    1866:	e2 f7       	brpl	.-8      	; 0x1860 <_ZN7oneWire9read_byteEv+0x34>
    1868:	49 2b       	or	r20, r25
    186a:	4a b9       	out	0x0a, r20	; 10
    186c:	90 e1       	ldi	r25, 0x10	; 16
    186e:	9a 95       	dec	r25
    1870:	f1 f7       	brne	.-4      	; 0x186e <_ZN7oneWire9read_byteEv+0x42>
    1872:	4a b1       	in	r20, 0x0a	; 10
    1874:	b9 01       	movw	r22, r18
    1876:	02 80       	ldd	r0, Z+2	; 0x02
    1878:	02 c0       	rjmp	.+4      	; 0x187e <_ZN7oneWire9read_byteEv+0x52>
    187a:	66 0f       	add	r22, r22
    187c:	77 1f       	adc	r23, r23
    187e:	0a 94       	dec	r0
    1880:	e2 f7       	brpl	.-8      	; 0x187a <_ZN7oneWire9read_byteEv+0x4e>
    1882:	96 2f       	mov	r25, r22
    1884:	90 95       	com	r25
    1886:	94 23       	and	r25, r20
    1888:	9a b9       	out	0x0a, r25	; 10
    188a:	c5 e3       	ldi	r28, 0x35	; 53
    188c:	ca 95       	dec	r28
    188e:	f1 f7       	brne	.-4      	; 0x188c <_ZN7oneWire9read_byteEv+0x60>
    1890:	00 00       	nop
    1892:	99 b1       	in	r25, 0x09	; 9
    1894:	a9 01       	movw	r20, r18
    1896:	02 80       	ldd	r0, Z+2	; 0x02
    1898:	02 c0       	rjmp	.+4      	; 0x189e <_ZN7oneWire9read_byteEv+0x72>
    189a:	44 0f       	add	r20, r20
    189c:	55 1f       	adc	r21, r21
    189e:	0a 94       	dec	r0
    18a0:	e2 f7       	brpl	.-8      	; 0x189a <_ZN7oneWire9read_byteEv+0x6e>
    18a2:	49 23       	and	r20, r25
    18a4:	c3 ed       	ldi	r28, 0xD3	; 211
    18a6:	d0 e0       	ldi	r29, 0x00	; 0
    18a8:	21 97       	sbiw	r28, 0x01	; 1
    18aa:	f1 f7       	brne	.-4      	; 0x18a8 <_ZN7oneWire9read_byteEv+0x7c>
    18ac:	00 c0       	rjmp	.+0      	; 0x18ae <_ZN7oneWire9read_byteEv+0x82>
    18ae:	00 00       	nop
    18b0:	41 11       	cpse	r20, r1
    18b2:	81 2b       	or	r24, r17
    18b4:	11 0f       	add	r17, r17
    18b6:	11 97       	sbiw	r26, 0x01	; 1
    18b8:	19 f6       	brne	.-122    	; 0x1840 <_ZN7oneWire9read_byteEv+0x14>
    18ba:	df 91       	pop	r29
    18bc:	cf 91       	pop	r28
    18be:	1f 91       	pop	r17
    18c0:	08 95       	ret

000018c2 <_ZN7oneWire11oneWireTaskEv>:
    18c2:	0f 93       	push	r16
    18c4:	1f 93       	push	r17
    18c6:	cf 93       	push	r28
    18c8:	df 93       	push	r29
    18ca:	ec 01       	movw	r28, r24
    18cc:	20 91 c6 06 	lds	r18, 0x06C6
    18d0:	9d ec       	ldi	r25, 0xCD	; 205
    18d2:	29 9f       	mul	r18, r25
    18d4:	91 2d       	mov	r25, r1
    18d6:	11 24       	eor	r1, r1
    18d8:	96 95       	lsr	r25
    18da:	96 95       	lsr	r25
    18dc:	39 2f       	mov	r19, r25
    18de:	33 0f       	add	r19, r19
    18e0:	33 0f       	add	r19, r19
    18e2:	93 0f       	add	r25, r19
    18e4:	29 13       	cpse	r18, r25
    18e6:	9a c0       	rjmp	.+308    	; 0x1a1c <_ZN7oneWire11oneWireTaskEv+0x15a>
    18e8:	89 e1       	ldi	r24, 0x19	; 25
    18ea:	ea ea       	ldi	r30, 0xAA	; 170
    18ec:	f4 e0       	ldi	r31, 0x04	; 4
    18ee:	a7 ec       	ldi	r26, 0xC7	; 199
    18f0:	b5 e0       	ldi	r27, 0x05	; 5
    18f2:	01 90       	ld	r0, Z+
    18f4:	0d 92       	st	X+, r0
    18f6:	8a 95       	dec	r24
    18f8:	e1 f7       	brne	.-8      	; 0x18f2 <_ZN7oneWire11oneWireTaskEv+0x30>
    18fa:	67 ec       	ldi	r22, 0xC7	; 199
    18fc:	75 e0       	ldi	r23, 0x05	; 5
    18fe:	88 81       	ld	r24, Y
    1900:	99 81       	ldd	r25, Y+1	; 0x01
    1902:	0e 94 ff 0e 	call	0x1dfe	; 0x1dfe <_ZN6serial4sendEPc>
    1906:	ce 01       	movw	r24, r28
    1908:	0e 94 40 0b 	call	0x1680	; 0x1680 <_ZN7oneWire5resetEv>
    190c:	6c ec       	ldi	r22, 0xCC	; 204
    190e:	ce 01       	movw	r24, r28
    1910:	0e 94 fe 0b 	call	0x17fc	; 0x17fc <_ZN7oneWire10write_byteEh>
    1914:	64 e4       	ldi	r22, 0x44	; 68
    1916:	ce 01       	movw	r24, r28
    1918:	0e 94 fe 0b 	call	0x17fc	; 0x17fc <_ZN7oneWire10write_byteEh>
    191c:	ce 01       	movw	r24, r28
    191e:	0e 94 40 0b 	call	0x1680	; 0x1680 <_ZN7oneWire5resetEv>
    1922:	6c ec       	ldi	r22, 0xCC	; 204
    1924:	ce 01       	movw	r24, r28
    1926:	0e 94 fe 0b 	call	0x17fc	; 0x17fc <_ZN7oneWire10write_byteEh>
    192a:	6e eb       	ldi	r22, 0xBE	; 190
    192c:	ce 01       	movw	r24, r28
    192e:	0e 94 fe 0b 	call	0x17fc	; 0x17fc <_ZN7oneWire10write_byteEh>
    1932:	ce 01       	movw	r24, r28
    1934:	0e 94 16 0c 	call	0x182c	; 0x182c <_ZN7oneWire9read_byteEv>
    1938:	18 2f       	mov	r17, r24
    193a:	ce 01       	movw	r24, r28
    193c:	0e 94 16 0c 	call	0x182c	; 0x182c <_ZN7oneWire9read_byteEv>
    1940:	21 2f       	mov	r18, r17
    1942:	30 e0       	ldi	r19, 0x00	; 0
    1944:	a9 01       	movw	r20, r18
    1946:	58 2b       	or	r21, r24
    1948:	8a 01       	movw	r16, r20
    194a:	00 0f       	add	r16, r16
    194c:	11 1f       	adc	r17, r17
    194e:	98 01       	movw	r18, r16
    1950:	24 0f       	add	r18, r20
    1952:	35 1f       	adc	r19, r21
    1954:	22 0f       	add	r18, r18
    1956:	33 1f       	adc	r19, r19
    1958:	8a 01       	movw	r16, r20
    195a:	55 23       	and	r21, r21
    195c:	14 f4       	brge	.+4      	; 0x1962 <_ZN7oneWire11oneWireTaskEv+0xa0>
    195e:	0d 5f       	subi	r16, 0xFD	; 253
    1960:	1f 4f       	sbci	r17, 0xFF	; 255
    1962:	15 95       	asr	r17
    1964:	07 95       	ror	r16
    1966:	15 95       	asr	r17
    1968:	07 95       	ror	r16
    196a:	02 0f       	add	r16, r18
    196c:	13 1f       	adc	r17, r19
    196e:	c8 01       	movw	r24, r16
    1970:	01 2e       	mov	r0, r17
    1972:	00 0c       	add	r0, r0
    1974:	aa 0b       	sbc	r26, r26
    1976:	bb 0b       	sbc	r27, r27
    1978:	ac 01       	movw	r20, r24
    197a:	bd 01       	movw	r22, r26
    197c:	44 0f       	add	r20, r20
    197e:	55 1f       	adc	r21, r21
    1980:	66 1f       	adc	r22, r22
    1982:	77 1f       	adc	r23, r23
    1984:	44 0f       	add	r20, r20
    1986:	55 1f       	adc	r21, r21
    1988:	66 1f       	adc	r22, r22
    198a:	77 1f       	adc	r23, r23
    198c:	44 0f       	add	r20, r20
    198e:	55 1f       	adc	r21, r21
    1990:	66 1f       	adc	r22, r22
    1992:	77 1f       	adc	r23, r23
    1994:	84 0f       	add	r24, r20
    1996:	95 1f       	adc	r25, r21
    1998:	a6 1f       	adc	r26, r22
    199a:	b7 1f       	adc	r27, r23
    199c:	bc 01       	movw	r22, r24
    199e:	cd 01       	movw	r24, r26
    19a0:	60 58       	subi	r22, 0x80	; 128
    19a2:	71 4c       	sbci	r23, 0xC1	; 193
    19a4:	8f 4f       	sbci	r24, 0xFF	; 255
    19a6:	9f 4f       	sbci	r25, 0xFF	; 255
    19a8:	25 e0       	ldi	r18, 0x05	; 5
    19aa:	30 e0       	ldi	r19, 0x00	; 0
    19ac:	40 e0       	ldi	r20, 0x00	; 0
    19ae:	50 e0       	ldi	r21, 0x00	; 0
    19b0:	0e 94 9a 10 	call	0x2134	; 0x2134 <__divmodsi4>
    19b4:	ca 01       	movw	r24, r20
    19b6:	b9 01       	movw	r22, r18
    19b8:	24 e6       	ldi	r18, 0x64	; 100
    19ba:	30 e0       	ldi	r19, 0x00	; 0
    19bc:	40 e0       	ldi	r20, 0x00	; 0
    19be:	50 e0       	ldi	r21, 0x00	; 0
    19c0:	0e 94 9a 10 	call	0x2134	; 0x2134 <__divmodsi4>
    19c4:	9f 93       	push	r25
    19c6:	8f 93       	push	r24
    19c8:	7f 93       	push	r23
    19ca:	6f 93       	push	r22
    19cc:	5f 93       	push	r21
    19ce:	4f 93       	push	r20
    19d0:	3f 93       	push	r19
    19d2:	2f 93       	push	r18
    19d4:	c8 01       	movw	r24, r16
    19d6:	64 e6       	ldi	r22, 0x64	; 100
    19d8:	70 e0       	ldi	r23, 0x00	; 0
    19da:	0e 94 64 10 	call	0x20c8	; 0x20c8 <__divmodhi4>
    19de:	9f 93       	push	r25
    19e0:	8f 93       	push	r24
    19e2:	7f 93       	push	r23
    19e4:	6f 93       	push	r22
    19e6:	8b 81       	ldd	r24, Y+3	; 0x03
    19e8:	1f 92       	push	r1
    19ea:	8f 93       	push	r24
    19ec:	83 ec       	ldi	r24, 0xC3	; 195
    19ee:	94 e0       	ldi	r25, 0x04	; 4
    19f0:	9f 93       	push	r25
    19f2:	8f 93       	push	r24
    19f4:	87 ec       	ldi	r24, 0xC7	; 199
    19f6:	95 e0       	ldi	r25, 0x05	; 5
    19f8:	9f 93       	push	r25
    19fa:	8f 93       	push	r24
    19fc:	0e 94 74 12 	call	0x24e8	; 0x24e8 <sprintf>
    1a00:	67 ec       	ldi	r22, 0xC7	; 199
    1a02:	75 e0       	ldi	r23, 0x05	; 5
    1a04:	88 81       	ld	r24, Y
    1a06:	99 81       	ldd	r25, Y+1	; 0x01
    1a08:	0e 94 ff 0e 	call	0x1dfe	; 0x1dfe <_ZN6serial4sendEPc>
    1a0c:	8d b7       	in	r24, 0x3d	; 61
    1a0e:	9e b7       	in	r25, 0x3e	; 62
    1a10:	42 96       	adiw	r24, 0x12	; 18
    1a12:	0f b6       	in	r0, 0x3f	; 63
    1a14:	f8 94       	cli
    1a16:	9e bf       	out	0x3e, r25	; 62
    1a18:	0f be       	out	0x3f, r0	; 63
    1a1a:	8d bf       	out	0x3d, r24	; 61
    1a1c:	80 91 c6 06 	lds	r24, 0x06C6
    1a20:	8f 5f       	subi	r24, 0xFF	; 255
    1a22:	80 93 c6 06 	sts	0x06C6, r24
    1a26:	df 91       	pop	r29
    1a28:	cf 91       	pop	r28
    1a2a:	1f 91       	pop	r17
    1a2c:	0f 91       	pop	r16
    1a2e:	08 95       	ret

00001a30 <_ZN3PIR15init_timer_ln_1Ev>:
    1a30:	84 b5       	in	r24, 0x24	; 36
    1a32:	80 68       	ori	r24, 0x80	; 128
    1a34:	84 bd       	out	0x24, r24	; 36
    1a36:	85 b5       	in	r24, 0x25	; 37
    1a38:	80 68       	ori	r24, 0x80	; 128
    1a3a:	85 bd       	out	0x25, r24	; 37
    1a3c:	85 b5       	in	r24, 0x25	; 37
    1a3e:	85 60       	ori	r24, 0x05	; 5
    1a40:	85 bd       	out	0x25, r24	; 37
    1a42:	ee e6       	ldi	r30, 0x6E	; 110
    1a44:	f0 e0       	ldi	r31, 0x00	; 0
    1a46:	80 81       	ld	r24, Z
    1a48:	82 60       	ori	r24, 0x02	; 2
    1a4a:	80 83       	st	Z, r24
    1a4c:	80 81       	ld	r24, Z
    1a4e:	82 60       	ori	r24, 0x02	; 2
    1a50:	80 83       	st	Z, r24
    1a52:	8f ef       	ldi	r24, 0xFF	; 255
    1a54:	87 bd       	out	0x27, r24	; 39
    1a56:	08 95       	ret

00001a58 <_ZN3PIR15init_timer_ln_2Ev>:
    1a58:	84 b5       	in	r24, 0x24	; 36
    1a5a:	84 bd       	out	0x24, r24	; 36
    1a5c:	85 b5       	in	r24, 0x25	; 37
    1a5e:	80 64       	ori	r24, 0x40	; 64
    1a60:	85 bd       	out	0x25, r24	; 37
    1a62:	85 b5       	in	r24, 0x25	; 37
    1a64:	85 60       	ori	r24, 0x05	; 5
    1a66:	85 bd       	out	0x25, r24	; 37
    1a68:	ee e6       	ldi	r30, 0x6E	; 110
    1a6a:	f0 e0       	ldi	r31, 0x00	; 0
    1a6c:	80 81       	ld	r24, Z
    1a6e:	84 60       	ori	r24, 0x04	; 4
    1a70:	80 83       	st	Z, r24
    1a72:	80 81       	ld	r24, Z
    1a74:	84 60       	ori	r24, 0x04	; 4
    1a76:	80 83       	st	Z, r24
    1a78:	8f ef       	ldi	r24, 0xFF	; 255
    1a7a:	87 bd       	out	0x27, r24	; 39
    1a7c:	08 95       	ret

00001a7e <_ZN3PIR7initPIREv>:
    1a7e:	e8 e6       	ldi	r30, 0x68	; 104
    1a80:	f0 e0       	ldi	r31, 0x00	; 0
    1a82:	20 81       	ld	r18, Z
    1a84:	24 60       	ori	r18, 0x04	; 4
    1a86:	20 83       	st	Z, r18
    1a88:	ed e6       	ldi	r30, 0x6D	; 109
    1a8a:	f0 e0       	ldi	r31, 0x00	; 0
    1a8c:	40 81       	ld	r20, Z
    1a8e:	21 e0       	ldi	r18, 0x01	; 1
    1a90:	30 e0       	ldi	r19, 0x00	; 0
    1a92:	dc 01       	movw	r26, r24
    1a94:	12 96       	adiw	r26, 0x02	; 2
    1a96:	0c 90       	ld	r0, X
    1a98:	02 c0       	rjmp	.+4      	; 0x1a9e <_ZN3PIR7initPIREv+0x20>
    1a9a:	22 0f       	add	r18, r18
    1a9c:	33 1f       	adc	r19, r19
    1a9e:	0a 94       	dec	r0
    1aa0:	e2 f7       	brpl	.-8      	; 0x1a9a <_ZN3PIR7initPIREv+0x1c>
    1aa2:	24 2b       	or	r18, r20
    1aa4:	20 83       	st	Z, r18
    1aa6:	da 9a       	sbi	0x1b, 2	; 27
    1aa8:	78 94       	sei
    1aaa:	08 95       	ret

00001aac <_ZN3PIRC1EP6serialh>:
    1aac:	cf 93       	push	r28
    1aae:	df 93       	push	r29
    1ab0:	ec 01       	movw	r28, r24
    1ab2:	4a 83       	std	Y+2, r20	; 0x02
    1ab4:	79 83       	std	Y+1, r23	; 0x01
    1ab6:	68 83       	st	Y, r22
    1ab8:	2a b1       	in	r18, 0x0a	; 10
    1aba:	81 e0       	ldi	r24, 0x01	; 1
    1abc:	90 e0       	ldi	r25, 0x00	; 0
    1abe:	02 c0       	rjmp	.+4      	; 0x1ac4 <_ZN3PIRC1EP6serialh+0x18>
    1ac0:	88 0f       	add	r24, r24
    1ac2:	99 1f       	adc	r25, r25
    1ac4:	4a 95       	dec	r20
    1ac6:	e2 f7       	brpl	.-8      	; 0x1ac0 <_ZN3PIRC1EP6serialh+0x14>
    1ac8:	80 95       	com	r24
    1aca:	82 23       	and	r24, r18
    1acc:	8a b9       	out	0x0a, r24	; 10
    1ace:	8a 81       	ldd	r24, Y+2	; 0x02
    1ad0:	84 30       	cpi	r24, 0x04	; 4
    1ad2:	41 f0       	breq	.+16     	; 0x1ae4 <_ZN3PIRC1EP6serialh+0x38>
    1ad4:	87 30       	cpi	r24, 0x07	; 7
    1ad6:	61 f4       	brne	.+24     	; 0x1af0 <_ZN3PIRC1EP6serialh+0x44>
    1ad8:	81 e0       	ldi	r24, 0x01	; 1
    1ada:	8b 83       	std	Y+3, r24	; 0x03
    1adc:	ce 01       	movw	r24, r28
    1ade:	0e 94 18 0d 	call	0x1a30	; 0x1a30 <_ZN3PIR15init_timer_ln_1Ev>
    1ae2:	07 c0       	rjmp	.+14     	; 0x1af2 <_ZN3PIRC1EP6serialh+0x46>
    1ae4:	82 e0       	ldi	r24, 0x02	; 2
    1ae6:	8b 83       	std	Y+3, r24	; 0x03
    1ae8:	ce 01       	movw	r24, r28
    1aea:	0e 94 2c 0d 	call	0x1a58	; 0x1a58 <_ZN3PIR15init_timer_ln_2Ev>
    1aee:	01 c0       	rjmp	.+2      	; 0x1af2 <_ZN3PIRC1EP6serialh+0x46>
    1af0:	1b 82       	std	Y+3, r1	; 0x03
    1af2:	8b 81       	ldd	r24, Y+3	; 0x03
    1af4:	1f 92       	push	r1
    1af6:	8f 93       	push	r24
    1af8:	8c ee       	ldi	r24, 0xEC	; 236
    1afa:	94 e0       	ldi	r25, 0x04	; 4
    1afc:	9f 93       	push	r25
    1afe:	8f 93       	push	r24
    1b00:	87 ec       	ldi	r24, 0xC7	; 199
    1b02:	95 e0       	ldi	r25, 0x05	; 5
    1b04:	9f 93       	push	r25
    1b06:	8f 93       	push	r24
    1b08:	0e 94 74 12 	call	0x24e8	; 0x24e8 <sprintf>
    1b0c:	67 ec       	ldi	r22, 0xC7	; 199
    1b0e:	75 e0       	ldi	r23, 0x05	; 5
    1b10:	88 81       	ld	r24, Y
    1b12:	99 81       	ldd	r25, Y+1	; 0x01
    1b14:	0e 94 ff 0e 	call	0x1dfe	; 0x1dfe <_ZN6serial4sendEPc>
	#else
		//round up by default
		__ticks_dc = (uint32_t)(ceil(fabs(__tmp)));
	#endif

	__builtin_avr_delay_cycles(__ticks_dc);
    1b18:	2f ef       	ldi	r18, 0xFF	; 255
    1b1a:	33 eb       	ldi	r19, 0xB3	; 179
    1b1c:	84 ec       	ldi	r24, 0xC4	; 196
    1b1e:	94 e0       	ldi	r25, 0x04	; 4
    1b20:	21 50       	subi	r18, 0x01	; 1
    1b22:	30 40       	sbci	r19, 0x00	; 0
    1b24:	80 40       	sbci	r24, 0x00	; 0
    1b26:	90 40       	sbci	r25, 0x00	; 0
    1b28:	d9 f7       	brne	.-10     	; 0x1b20 <_ZN3PIRC1EP6serialh+0x74>
    1b2a:	00 c0       	rjmp	.+0      	; 0x1b2c <_ZN3PIRC1EP6serialh+0x80>
    1b2c:	00 00       	nop
    1b2e:	ce 01       	movw	r24, r28
    1b30:	0e 94 3f 0d 	call	0x1a7e	; 0x1a7e <_ZN3PIR7initPIREv>
    1b34:	86 e1       	ldi	r24, 0x16	; 22
    1b36:	eb e0       	ldi	r30, 0x0B	; 11
    1b38:	f5 e0       	ldi	r31, 0x05	; 5
    1b3a:	a7 ec       	ldi	r26, 0xC7	; 199
    1b3c:	b5 e0       	ldi	r27, 0x05	; 5
    1b3e:	01 90       	ld	r0, Z+
    1b40:	0d 92       	st	X+, r0
    1b42:	8a 95       	dec	r24
    1b44:	e1 f7       	brne	.-8      	; 0x1b3e <_ZN3PIRC1EP6serialh+0x92>
    1b46:	67 ec       	ldi	r22, 0xC7	; 199
    1b48:	75 e0       	ldi	r23, 0x05	; 5
    1b4a:	88 81       	ld	r24, Y
    1b4c:	99 81       	ldd	r25, Y+1	; 0x01
    1b4e:	0e 94 ff 0e 	call	0x1dfe	; 0x1dfe <_ZN6serial4sendEPc>
    1b52:	0f 90       	pop	r0
    1b54:	0f 90       	pop	r0
    1b56:	0f 90       	pop	r0
    1b58:	0f 90       	pop	r0
    1b5a:	0f 90       	pop	r0
    1b5c:	0f 90       	pop	r0
    1b5e:	df 91       	pop	r29
    1b60:	cf 91       	pop	r28
    1b62:	08 95       	ret

00001b64 <_ZN3PIR8isActiveEv>:
    1b64:	20 91 c6 05 	lds	r18, 0x05C6
    1b68:	fc 01       	movw	r30, r24
    1b6a:	83 81       	ldd	r24, Z+3	; 0x03
    1b6c:	92 2f       	mov	r25, r18
    1b6e:	98 23       	and	r25, r24
    1b70:	81 e0       	ldi	r24, 0x01	; 1
    1b72:	09 f4       	brne	.+2      	; 0x1b76 <_ZN3PIR8isActiveEv+0x12>
    1b74:	80 e0       	ldi	r24, 0x00	; 0
    1b76:	08 95       	ret

00001b78 <_ZN3PIR7PIRTaskEv>:
    1b78:	cf 93       	push	r28
    1b7a:	df 93       	push	r29
    1b7c:	ec 01       	movw	r28, r24
    1b7e:	85 e1       	ldi	r24, 0x15	; 21
    1b80:	e1 e2       	ldi	r30, 0x21	; 33
    1b82:	f5 e0       	ldi	r31, 0x05	; 5
    1b84:	a7 ec       	ldi	r26, 0xC7	; 199
    1b86:	b5 e0       	ldi	r27, 0x05	; 5
    1b88:	01 90       	ld	r0, Z+
    1b8a:	0d 92       	st	X+, r0
    1b8c:	8a 95       	dec	r24
    1b8e:	e1 f7       	brne	.-8      	; 0x1b88 <_ZN3PIR7PIRTaskEv+0x10>
    1b90:	67 ec       	ldi	r22, 0xC7	; 199
    1b92:	75 e0       	ldi	r23, 0x05	; 5
    1b94:	88 81       	ld	r24, Y
    1b96:	99 81       	ldd	r25, Y+1	; 0x01
    1b98:	0e 94 ff 0e 	call	0x1dfe	; 0x1dfe <_ZN6serial4sendEPc>
    1b9c:	8b e0       	ldi	r24, 0x0B	; 11
    1b9e:	e6 e3       	ldi	r30, 0x36	; 54
    1ba0:	f5 e0       	ldi	r31, 0x05	; 5
    1ba2:	a7 ec       	ldi	r26, 0xC7	; 199
    1ba4:	b5 e0       	ldi	r27, 0x05	; 5
    1ba6:	01 90       	ld	r0, Z+
    1ba8:	0d 92       	st	X+, r0
    1baa:	8a 95       	dec	r24
    1bac:	e1 f7       	brne	.-8      	; 0x1ba6 <_ZN3PIR7PIRTaskEv+0x2e>
    1bae:	67 ec       	ldi	r22, 0xC7	; 199
    1bb0:	75 e0       	ldi	r23, 0x05	; 5
    1bb2:	88 81       	ld	r24, Y
    1bb4:	99 81       	ldd	r25, Y+1	; 0x01
    1bb6:	0e 94 ff 0e 	call	0x1dfe	; 0x1dfe <_ZN6serial4sendEPc>
    1bba:	ce 01       	movw	r24, r28
    1bbc:	0e 94 b2 0d 	call	0x1b64	; 0x1b64 <_ZN3PIR8isActiveEv>
    1bc0:	81 11       	cpse	r24, r1
    1bc2:	0f c0       	rjmp	.+30     	; 0x1be2 <_ZN3PIR7PIRTaskEv+0x6a>
    1bc4:	85 e0       	ldi	r24, 0x05	; 5
    1bc6:	e1 e4       	ldi	r30, 0x41	; 65
    1bc8:	f5 e0       	ldi	r31, 0x05	; 5
    1bca:	a7 ec       	ldi	r26, 0xC7	; 199
    1bcc:	b5 e0       	ldi	r27, 0x05	; 5
    1bce:	01 90       	ld	r0, Z+
    1bd0:	0d 92       	st	X+, r0
    1bd2:	8a 95       	dec	r24
    1bd4:	e1 f7       	brne	.-8      	; 0x1bce <_ZN3PIR7PIRTaskEv+0x56>
    1bd6:	67 ec       	ldi	r22, 0xC7	; 199
    1bd8:	75 e0       	ldi	r23, 0x05	; 5
    1bda:	88 81       	ld	r24, Y
    1bdc:	99 81       	ldd	r25, Y+1	; 0x01
    1bde:	0e 94 ff 0e 	call	0x1dfe	; 0x1dfe <_ZN6serial4sendEPc>
    1be2:	8a e0       	ldi	r24, 0x0A	; 10
    1be4:	e6 e4       	ldi	r30, 0x46	; 70
    1be6:	f5 e0       	ldi	r31, 0x05	; 5
    1be8:	a7 ec       	ldi	r26, 0xC7	; 199
    1bea:	b5 e0       	ldi	r27, 0x05	; 5
    1bec:	01 90       	ld	r0, Z+
    1bee:	0d 92       	st	X+, r0
    1bf0:	8a 95       	dec	r24
    1bf2:	e1 f7       	brne	.-8      	; 0x1bec <_ZN3PIR7PIRTaskEv+0x74>
    1bf4:	67 ec       	ldi	r22, 0xC7	; 199
    1bf6:	75 e0       	ldi	r23, 0x05	; 5
    1bf8:	88 81       	ld	r24, Y
    1bfa:	99 81       	ldd	r25, Y+1	; 0x01
    1bfc:	0e 94 ff 0e 	call	0x1dfe	; 0x1dfe <_ZN6serial4sendEPc>
    1c00:	80 91 c7 06 	lds	r24, 0x06C7
    1c04:	8f 5f       	subi	r24, 0xFF	; 255
    1c06:	80 93 c7 06 	sts	0x06C7, r24
    1c0a:	df 91       	pop	r29
    1c0c:	cf 91       	pop	r28
    1c0e:	08 95       	ret

00001c10 <__vector_5>:
    1c10:	1f 92       	push	r1
    1c12:	0f 92       	push	r0
    1c14:	0f b6       	in	r0, 0x3f	; 63
    1c16:	0f 92       	push	r0
    1c18:	11 24       	eor	r1, r1
    1c1a:	8f 93       	push	r24
    1c1c:	9f 93       	push	r25
    1c1e:	ef 93       	push	r30
    1c20:	ff 93       	push	r31
    1c22:	80 91 c4 05 	lds	r24, 0x05C4
    1c26:	f8 94       	cli
    1c28:	89 b1       	in	r24, 0x09	; 9
    1c2a:	90 91 c3 05 	lds	r25, 0x05C3
    1c2e:	89 27       	eor	r24, r25
    1c30:	80 93 c4 05 	sts	0x05C4, r24
    1c34:	89 b1       	in	r24, 0x09	; 9
    1c36:	80 93 c3 05 	sts	0x05C3, r24
    1c3a:	80 91 c4 05 	lds	r24, 0x05C4
    1c3e:	88 23       	and	r24, r24
    1c40:	64 f4       	brge	.+24     	; 0x1c5a <__vector_5+0x4a>
    1c42:	10 92 c2 05 	sts	0x05C2, r1
    1c46:	80 91 c5 05 	lds	r24, 0x05C5
    1c4a:	81 60       	ori	r24, 0x01	; 1
    1c4c:	80 93 c5 05 	sts	0x05C5, r24
    1c50:	ee e6       	ldi	r30, 0x6E	; 110
    1c52:	f0 e0       	ldi	r31, 0x00	; 0
    1c54:	80 81       	ld	r24, Z
    1c56:	82 60       	ori	r24, 0x02	; 2
    1c58:	80 83       	st	Z, r24
    1c5a:	80 91 c4 05 	lds	r24, 0x05C4
    1c5e:	84 ff       	sbrs	r24, 4
    1c60:	0c c0       	rjmp	.+24     	; 0x1c7a <__vector_5+0x6a>
    1c62:	10 92 c1 05 	sts	0x05C1, r1
    1c66:	80 91 c5 05 	lds	r24, 0x05C5
    1c6a:	82 60       	ori	r24, 0x02	; 2
    1c6c:	80 93 c5 05 	sts	0x05C5, r24
    1c70:	ee e6       	ldi	r30, 0x6E	; 110
    1c72:	f0 e0       	ldi	r31, 0x00	; 0
    1c74:	80 81       	ld	r24, Z
    1c76:	84 60       	ori	r24, 0x04	; 4
    1c78:	80 83       	st	Z, r24
    1c7a:	78 94       	sei
    1c7c:	ff 91       	pop	r31
    1c7e:	ef 91       	pop	r30
    1c80:	9f 91       	pop	r25
    1c82:	8f 91       	pop	r24
    1c84:	0f 90       	pop	r0
    1c86:	0f be       	out	0x3f, r0	; 63
    1c88:	0f 90       	pop	r0
    1c8a:	1f 90       	pop	r1
    1c8c:	18 95       	reti

00001c8e <__vector_14>:
    1c8e:	1f 92       	push	r1
    1c90:	0f 92       	push	r0
    1c92:	0f b6       	in	r0, 0x3f	; 63
    1c94:	0f 92       	push	r0
    1c96:	11 24       	eor	r1, r1
    1c98:	8f 93       	push	r24
    1c9a:	9f 93       	push	r25
    1c9c:	80 91 c5 05 	lds	r24, 0x05C5
    1ca0:	80 ff       	sbrs	r24, 0
    1ca2:	29 c0       	rjmp	.+82     	; 0x1cf6 <__vector_14+0x68>
    1ca4:	80 91 c6 05 	lds	r24, 0x05C6
    1ca8:	80 ff       	sbrs	r24, 0
    1caa:	13 c0       	rjmp	.+38     	; 0x1cd2 <__vector_14+0x44>
    1cac:	80 91 c2 05 	lds	r24, 0x05C2
    1cb0:	91 e0       	ldi	r25, 0x01	; 1
    1cb2:	98 0f       	add	r25, r24
    1cb4:	90 93 c2 05 	sts	0x05C2, r25
    1cb8:	8b 39       	cpi	r24, 0x9B	; 155
    1cba:	e8 f0       	brcs	.+58     	; 0x1cf6 <__vector_14+0x68>
    1cbc:	80 91 c6 05 	lds	r24, 0x05C6
    1cc0:	8e 7f       	andi	r24, 0xFE	; 254
    1cc2:	80 93 c6 05 	sts	0x05C6, r24
    1cc6:	80 91 c5 05 	lds	r24, 0x05C5
    1cca:	8e 7f       	andi	r24, 0xFE	; 254
    1ccc:	80 93 c5 05 	sts	0x05C5, r24
    1cd0:	12 c0       	rjmp	.+36     	; 0x1cf6 <__vector_14+0x68>
    1cd2:	80 91 c2 05 	lds	r24, 0x05C2
    1cd6:	91 e0       	ldi	r25, 0x01	; 1
    1cd8:	98 0f       	add	r25, r24
    1cda:	90 93 c2 05 	sts	0x05C2, r25
    1cde:	84 36       	cpi	r24, 0x64	; 100
    1ce0:	50 f0       	brcs	.+20     	; 0x1cf6 <__vector_14+0x68>
    1ce2:	80 91 c6 05 	lds	r24, 0x05C6
    1ce6:	81 60       	ori	r24, 0x01	; 1
    1ce8:	80 93 c6 05 	sts	0x05C6, r24
    1cec:	80 91 c5 05 	lds	r24, 0x05C5
    1cf0:	8e 7f       	andi	r24, 0xFE	; 254
    1cf2:	80 93 c5 05 	sts	0x05C5, r24
    1cf6:	9f 91       	pop	r25
    1cf8:	8f 91       	pop	r24
    1cfa:	0f 90       	pop	r0
    1cfc:	0f be       	out	0x3f, r0	; 63
    1cfe:	0f 90       	pop	r0
    1d00:	1f 90       	pop	r1
    1d02:	18 95       	reti

00001d04 <__vector_15>:
    1d04:	1f 92       	push	r1
    1d06:	0f 92       	push	r0
    1d08:	0f b6       	in	r0, 0x3f	; 63
    1d0a:	0f 92       	push	r0
    1d0c:	11 24       	eor	r1, r1
    1d0e:	8f 93       	push	r24
    1d10:	9f 93       	push	r25
    1d12:	80 91 c5 05 	lds	r24, 0x05C5
    1d16:	81 ff       	sbrs	r24, 1
    1d18:	29 c0       	rjmp	.+82     	; 0x1d6c <__vector_15+0x68>
    1d1a:	80 91 c6 05 	lds	r24, 0x05C6
    1d1e:	81 ff       	sbrs	r24, 1
    1d20:	13 c0       	rjmp	.+38     	; 0x1d48 <__vector_15+0x44>
    1d22:	80 91 c1 05 	lds	r24, 0x05C1
    1d26:	91 e0       	ldi	r25, 0x01	; 1
    1d28:	98 0f       	add	r25, r24
    1d2a:	90 93 c1 05 	sts	0x05C1, r25
    1d2e:	8b 39       	cpi	r24, 0x9B	; 155
    1d30:	e8 f0       	brcs	.+58     	; 0x1d6c <__vector_15+0x68>
    1d32:	80 91 c6 05 	lds	r24, 0x05C6
    1d36:	8d 7f       	andi	r24, 0xFD	; 253
    1d38:	80 93 c6 05 	sts	0x05C6, r24
    1d3c:	80 91 c5 05 	lds	r24, 0x05C5
    1d40:	8d 7f       	andi	r24, 0xFD	; 253
    1d42:	80 93 c5 05 	sts	0x05C5, r24
    1d46:	12 c0       	rjmp	.+36     	; 0x1d6c <__vector_15+0x68>
    1d48:	80 91 c1 05 	lds	r24, 0x05C1
    1d4c:	91 e0       	ldi	r25, 0x01	; 1
    1d4e:	98 0f       	add	r25, r24
    1d50:	90 93 c1 05 	sts	0x05C1, r25
    1d54:	84 36       	cpi	r24, 0x64	; 100
    1d56:	50 f0       	brcs	.+20     	; 0x1d6c <__vector_15+0x68>
    1d58:	80 91 c6 05 	lds	r24, 0x05C6
    1d5c:	82 60       	ori	r24, 0x02	; 2
    1d5e:	80 93 c6 05 	sts	0x05C6, r24
    1d62:	80 91 c5 05 	lds	r24, 0x05C5
    1d66:	8d 7f       	andi	r24, 0xFD	; 253
    1d68:	80 93 c5 05 	sts	0x05C5, r24
    1d6c:	9f 91       	pop	r25
    1d6e:	8f 91       	pop	r24
    1d70:	0f 90       	pop	r0
    1d72:	0f be       	out	0x3f, r0	; 63
    1d74:	0f 90       	pop	r0
    1d76:	1f 90       	pop	r1
    1d78:	18 95       	reti

00001d7a <_ZN6serial4initEv>:
 * 
 * Return:		bool - the status of the operation (true  = success,
 *													false = failure)
 ****************************************************************************/
void serial::init (void)
{
    1d7a:	fc 01       	movw	r30, r24
	/* calculate ubrr for desired baud rate */
	uint32_t ubrr = ((clk_speed / 16UL) / baud_rate) - 1;
    1d7c:	82 81       	ldd	r24, Z+2	; 0x02
    1d7e:	93 81       	ldd	r25, Z+3	; 0x03
    1d80:	a4 81       	ldd	r26, Z+4	; 0x04
    1d82:	b5 81       	ldd	r27, Z+5	; 0x05
    1d84:	bc 01       	movw	r22, r24
    1d86:	cd 01       	movw	r24, r26
    1d88:	68 94       	set
    1d8a:	13 f8       	bld	r1, 3
    1d8c:	96 95       	lsr	r25
    1d8e:	87 95       	ror	r24
    1d90:	77 95       	ror	r23
    1d92:	67 95       	ror	r22
    1d94:	16 94       	lsr	r1
    1d96:	d1 f7       	brne	.-12     	; 0x1d8c <_ZN6serial4initEv+0x12>
    1d98:	20 81       	ld	r18, Z
    1d9a:	31 81       	ldd	r19, Z+1	; 0x01
    1d9c:	40 e0       	ldi	r20, 0x00	; 0
    1d9e:	50 e0       	ldi	r21, 0x00	; 0
    1da0:	0e 94 78 10 	call	0x20f0	; 0x20f0 <__udivmodsi4>
    1da4:	ba 01       	movw	r22, r20
    1da6:	a9 01       	movw	r20, r18
    1da8:	41 50       	subi	r20, 0x01	; 1
    1daa:	51 09       	sbc	r21, r1
    1dac:	61 09       	sbc	r22, r1
    1dae:	71 09       	sbc	r23, r1
	UBRR0H = (uint8_t)(ubrr >> 8);
    1db0:	bb 27       	eor	r27, r27
    1db2:	a7 2f       	mov	r26, r23
    1db4:	96 2f       	mov	r25, r22
    1db6:	85 2f       	mov	r24, r21
    1db8:	80 93 c5 00 	sts	0x00C5, r24
	UBRR0L = (uint8_t)ubrr;
    1dbc:	40 93 c4 00 	sts	0x00C4, r20
	
	/* Enable receiver and transmitter */
	UCSR0B = ((1 << RXEN0) | (1 << TXEN0));
    1dc0:	88 e1       	ldi	r24, 0x18	; 24
    1dc2:	80 93 c1 00 	sts	0x00C1, r24
	
	/* Set frame format: 8data, 1stop bit */
	UCSR0C = ((1 << USBS0) | (3 << UCSZ00));
    1dc6:	8e e0       	ldi	r24, 0x0E	; 14
    1dc8:	80 93 c2 00 	sts	0x00C2, r24
	UCSR0A &= ~(1 << U2X0);
    1dcc:	e0 ec       	ldi	r30, 0xC0	; 192
    1dce:	f0 e0       	ldi	r31, 0x00	; 0
    1dd0:	80 81       	ld	r24, Z
    1dd2:	8d 7f       	andi	r24, 0xFD	; 253
    1dd4:	80 83       	st	Z, r24
    1dd6:	08 95       	ret

00001dd8 <_ZN6serialC1Ejm>:
 * Parameters:	baud - the baud rate to establish
 *				clk  - the clock speed of the device
 ****************************************************************************/
serial::serial (uint16_t baud, uint32_t clk)
{
	baud_rate = baud;		// store a local copy of baud rate
    1dd8:	fc 01       	movw	r30, r24
    1dda:	71 83       	std	Z+1, r23	; 0x01
    1ddc:	60 83       	st	Z, r22
	clk_speed = clk;		// store a local copy of clock speed of device
    1dde:	22 83       	std	Z+2, r18	; 0x02
    1de0:	33 83       	std	Z+3, r19	; 0x03
    1de2:	44 83       	std	Z+4, r20	; 0x04
    1de4:	55 83       	std	Z+5, r21	; 0x05
	
	init();
    1de6:	0e 94 bd 0e 	call	0x1d7a	; 0x1d7a <_ZN6serial4initEv>
    1dea:	08 95       	ret

00001dec <_ZN6serial4sendEh>:
bool serial::send (uint8_t data)
{
	uint16_t cnt = 0;
	
	/* Wait for empty transmit buffer */
	while (!(UCSR0A & (1 << UDRE0)))// && cnt < SERIAL_TIMEOUT)
    1dec:	e0 ec       	ldi	r30, 0xC0	; 192
    1dee:	f0 e0       	ldi	r31, 0x00	; 0
    1df0:	80 81       	ld	r24, Z
    1df2:	85 ff       	sbrs	r24, 5
    1df4:	fd cf       	rjmp	.-6      	; 0x1df0 <_ZN6serial4sendEh+0x4>
		return false;
	}
	*/
	
	/* Put data into buffer, sends the data */
	UDR0 = data;
    1df6:	60 93 c6 00 	sts	0x00C6, r22
	
	return true;
}
    1dfa:	81 e0       	ldi	r24, 0x01	; 1
    1dfc:	08 95       	ret

00001dfe <_ZN6serial4sendEPc>:
 * 
 * Parameters:	str - the string of data to be sent, maximum 255 bytes
 * Return:		uint8_t - the total number of characters successfully sent
 ****************************************************************************/
uint8_t serial::send (char *str)
{
    1dfe:	ef 92       	push	r14
    1e00:	ff 92       	push	r15
    1e02:	0f 93       	push	r16
    1e04:	1f 93       	push	r17
    1e06:	cf 93       	push	r28
    1e08:	fb 01       	movw	r30, r22
	uint8_t sent = 0;
	
	while (*str && sent < SERIAL_MAX_SEND)
    1e0a:	60 81       	ld	r22, Z
    1e0c:	66 23       	and	r22, r22
    1e0e:	99 f0       	breq	.+38     	; 0x1e36 <_ZN6serial4sendEPc+0x38>
    1e10:	8f 01       	movw	r16, r30
    1e12:	7c 01       	movw	r14, r24
    1e14:	0f 5f       	subi	r16, 0xFF	; 255
    1e16:	1f 4f       	sbci	r17, 0xFF	; 255
    1e18:	c0 e0       	ldi	r28, 0x00	; 0
	{
		if (send(*str++))
    1e1a:	c7 01       	movw	r24, r14
    1e1c:	0e 94 f6 0e 	call	0x1dec	; 0x1dec <_ZN6serial4sendEh>
    1e20:	88 23       	and	r24, r24
    1e22:	51 f0       	breq	.+20     	; 0x1e38 <_ZN6serial4sendEPc+0x3a>
		{
			sent++;
    1e24:	cf 5f       	subi	r28, 0xFF	; 255
 ****************************************************************************/
uint8_t serial::send (char *str)
{
	uint8_t sent = 0;
	
	while (*str && sent < SERIAL_MAX_SEND)
    1e26:	f8 01       	movw	r30, r16
    1e28:	61 91       	ld	r22, Z+
    1e2a:	8f 01       	movw	r16, r30
    1e2c:	66 23       	and	r22, r22
    1e2e:	21 f0       	breq	.+8      	; 0x1e38 <_ZN6serial4sendEPc+0x3a>
    1e30:	cf 3f       	cpi	r28, 0xFF	; 255
    1e32:	99 f7       	brne	.-26     	; 0x1e1a <_ZN6serial4sendEPc+0x1c>
    1e34:	01 c0       	rjmp	.+2      	; 0x1e38 <_ZN6serial4sendEPc+0x3a>
 * Parameters:	str - the string of data to be sent, maximum 255 bytes
 * Return:		uint8_t - the total number of characters successfully sent
 ****************************************************************************/
uint8_t serial::send (char *str)
{
	uint8_t sent = 0;
    1e36:	c0 e0       	ldi	r28, 0x00	; 0
			break;
		}
	}
	
	return sent;
}
    1e38:	8c 2f       	mov	r24, r28
    1e3a:	cf 91       	pop	r28
    1e3c:	1f 91       	pop	r17
    1e3e:	0f 91       	pop	r16
    1e40:	ff 90       	pop	r15
    1e42:	ef 90       	pop	r14
    1e44:	08 95       	ret

00001e46 <_ZN8TiltBallC1EP6serialh>:
    1e46:	cf 93       	push	r28
    1e48:	df 93       	push	r29
    1e4a:	ec 01       	movw	r28, r24
    1e4c:	4a 83       	std	Y+2, r20	; 0x02
    1e4e:	79 83       	std	Y+1, r23	; 0x01
    1e50:	68 83       	st	Y, r22
    1e52:	84 b1       	in	r24, 0x04	; 4
    1e54:	21 e0       	ldi	r18, 0x01	; 1
    1e56:	30 e0       	ldi	r19, 0x00	; 0
    1e58:	02 c0       	rjmp	.+4      	; 0x1e5e <_ZN8TiltBallC1EP6serialh+0x18>
    1e5a:	22 0f       	add	r18, r18
    1e5c:	33 1f       	adc	r19, r19
    1e5e:	4a 95       	dec	r20
    1e60:	e2 f7       	brpl	.-8      	; 0x1e5a <_ZN8TiltBallC1EP6serialh+0x14>
    1e62:	20 95       	com	r18
    1e64:	28 23       	and	r18, r24
    1e66:	24 b9       	out	0x04, r18	; 4
    1e68:	8b e1       	ldi	r24, 0x1B	; 27
    1e6a:	e0 e5       	ldi	r30, 0x50	; 80
    1e6c:	f5 e0       	ldi	r31, 0x05	; 5
    1e6e:	a7 ec       	ldi	r26, 0xC7	; 199
    1e70:	b5 e0       	ldi	r27, 0x05	; 5
    1e72:	01 90       	ld	r0, Z+
    1e74:	0d 92       	st	X+, r0
    1e76:	8a 95       	dec	r24
    1e78:	e1 f7       	brne	.-8      	; 0x1e72 <_ZN8TiltBallC1EP6serialh+0x2c>
    1e7a:	67 ec       	ldi	r22, 0xC7	; 199
    1e7c:	75 e0       	ldi	r23, 0x05	; 5
    1e7e:	88 81       	ld	r24, Y
    1e80:	99 81       	ldd	r25, Y+1	; 0x01
    1e82:	0e 94 ff 0e 	call	0x1dfe	; 0x1dfe <_ZN6serial4sendEPc>
    1e86:	df 91       	pop	r29
    1e88:	cf 91       	pop	r28
    1e8a:	08 95       	ret

00001e8c <_ZN8TiltBall8isTiltedEv>:
    1e8c:	23 b1       	in	r18, 0x03	; 3
    1e8e:	30 e0       	ldi	r19, 0x00	; 0
    1e90:	a9 01       	movw	r20, r18
    1e92:	fc 01       	movw	r30, r24
    1e94:	02 80       	ldd	r0, Z+2	; 0x02
    1e96:	02 c0       	rjmp	.+4      	; 0x1e9c <_ZN8TiltBall8isTiltedEv+0x10>
    1e98:	55 95       	asr	r21
    1e9a:	47 95       	ror	r20
    1e9c:	0a 94       	dec	r0
    1e9e:	e2 f7       	brpl	.-8      	; 0x1e98 <_ZN8TiltBall8isTiltedEv+0xc>
    1ea0:	ca 01       	movw	r24, r20
    1ea2:	81 70       	andi	r24, 0x01	; 1
    1ea4:	08 95       	ret

00001ea6 <_ZN8TiltBall12TiltBallTaskEv>:
    1ea6:	cf 93       	push	r28
    1ea8:	df 93       	push	r29
    1eaa:	ec 01       	movw	r28, r24
    1eac:	80 91 c8 06 	lds	r24, 0x06C8
    1eb0:	9d ec       	ldi	r25, 0xCD	; 205
    1eb2:	89 9f       	mul	r24, r25
    1eb4:	91 2d       	mov	r25, r1
    1eb6:	11 24       	eor	r1, r1
    1eb8:	96 95       	lsr	r25
    1eba:	96 95       	lsr	r25
    1ebc:	29 2f       	mov	r18, r25
    1ebe:	22 0f       	add	r18, r18
    1ec0:	22 0f       	add	r18, r18
    1ec2:	92 0f       	add	r25, r18
    1ec4:	89 13       	cpse	r24, r25
    1ec6:	41 c0       	rjmp	.+130    	; 0x1f4a <_ZN8TiltBall12TiltBallTaskEv+0xa4>
    1ec8:	8a e1       	ldi	r24, 0x1A	; 26
    1eca:	eb e6       	ldi	r30, 0x6B	; 107
    1ecc:	f5 e0       	ldi	r31, 0x05	; 5
    1ece:	a7 ec       	ldi	r26, 0xC7	; 199
    1ed0:	b5 e0       	ldi	r27, 0x05	; 5
    1ed2:	01 90       	ld	r0, Z+
    1ed4:	0d 92       	st	X+, r0
    1ed6:	8a 95       	dec	r24
    1ed8:	e1 f7       	brne	.-8      	; 0x1ed2 <_ZN8TiltBall12TiltBallTaskEv+0x2c>
    1eda:	67 ec       	ldi	r22, 0xC7	; 199
    1edc:	75 e0       	ldi	r23, 0x05	; 5
    1ede:	88 81       	ld	r24, Y
    1ee0:	99 81       	ldd	r25, Y+1	; 0x01
    1ee2:	0e 94 ff 0e 	call	0x1dfe	; 0x1dfe <_ZN6serial4sendEPc>
    1ee6:	8b e0       	ldi	r24, 0x0B	; 11
    1ee8:	e6 e3       	ldi	r30, 0x36	; 54
    1eea:	f5 e0       	ldi	r31, 0x05	; 5
    1eec:	a7 ec       	ldi	r26, 0xC7	; 199
    1eee:	b5 e0       	ldi	r27, 0x05	; 5
    1ef0:	01 90       	ld	r0, Z+
    1ef2:	0d 92       	st	X+, r0
    1ef4:	8a 95       	dec	r24
    1ef6:	e1 f7       	brne	.-8      	; 0x1ef0 <_ZN8TiltBall12TiltBallTaskEv+0x4a>
    1ef8:	67 ec       	ldi	r22, 0xC7	; 199
    1efa:	75 e0       	ldi	r23, 0x05	; 5
    1efc:	88 81       	ld	r24, Y
    1efe:	99 81       	ldd	r25, Y+1	; 0x01
    1f00:	0e 94 ff 0e 	call	0x1dfe	; 0x1dfe <_ZN6serial4sendEPc>
    1f04:	ce 01       	movw	r24, r28
    1f06:	0e 94 46 0f 	call	0x1e8c	; 0x1e8c <_ZN8TiltBall8isTiltedEv>
    1f0a:	81 11       	cpse	r24, r1
    1f0c:	0f c0       	rjmp	.+30     	; 0x1f2c <_ZN8TiltBall12TiltBallTaskEv+0x86>
    1f0e:	85 e0       	ldi	r24, 0x05	; 5
    1f10:	e1 e4       	ldi	r30, 0x41	; 65
    1f12:	f5 e0       	ldi	r31, 0x05	; 5
    1f14:	a7 ec       	ldi	r26, 0xC7	; 199
    1f16:	b5 e0       	ldi	r27, 0x05	; 5
    1f18:	01 90       	ld	r0, Z+
    1f1a:	0d 92       	st	X+, r0
    1f1c:	8a 95       	dec	r24
    1f1e:	e1 f7       	brne	.-8      	; 0x1f18 <_ZN8TiltBall12TiltBallTaskEv+0x72>
    1f20:	67 ec       	ldi	r22, 0xC7	; 199
    1f22:	75 e0       	ldi	r23, 0x05	; 5
    1f24:	88 81       	ld	r24, Y
    1f26:	99 81       	ldd	r25, Y+1	; 0x01
    1f28:	0e 94 ff 0e 	call	0x1dfe	; 0x1dfe <_ZN6serial4sendEPc>
    1f2c:	8a e0       	ldi	r24, 0x0A	; 10
    1f2e:	e5 e8       	ldi	r30, 0x85	; 133
    1f30:	f5 e0       	ldi	r31, 0x05	; 5
    1f32:	a7 ec       	ldi	r26, 0xC7	; 199
    1f34:	b5 e0       	ldi	r27, 0x05	; 5
    1f36:	01 90       	ld	r0, Z+
    1f38:	0d 92       	st	X+, r0
    1f3a:	8a 95       	dec	r24
    1f3c:	e1 f7       	brne	.-8      	; 0x1f36 <_ZN8TiltBall12TiltBallTaskEv+0x90>
    1f3e:	67 ec       	ldi	r22, 0xC7	; 199
    1f40:	75 e0       	ldi	r23, 0x05	; 5
    1f42:	88 81       	ld	r24, Y
    1f44:	99 81       	ldd	r25, Y+1	; 0x01
    1f46:	0e 94 ff 0e 	call	0x1dfe	; 0x1dfe <_ZN6serial4sendEPc>
    1f4a:	80 91 c8 06 	lds	r24, 0x06C8
    1f4e:	8f 5f       	subi	r24, 0xFF	; 255
    1f50:	80 93 c8 06 	sts	0x06C8, r24
    1f54:	df 91       	pop	r29
    1f56:	cf 91       	pop	r28
    1f58:	08 95       	ret

00001f5a <_ZN7UVIndex4initEv>:
    1f5a:	87 e8       	ldi	r24, 0x87	; 135
    1f5c:	80 93 7a 00 	sts	0x007A, r24
    1f60:	10 92 7b 00 	sts	0x007B, r1
    1f64:	10 92 7c 00 	sts	0x007C, r1
    1f68:	08 95       	ret

00001f6a <_ZN7UVIndexC1EP6serialh>:
    1f6a:	fc 01       	movw	r30, r24
    1f6c:	71 83       	std	Z+1, r23	; 0x01
    1f6e:	60 83       	st	Z, r22
    1f70:	42 83       	std	Z+2, r20	; 0x02
    1f72:	0e 94 ad 0f 	call	0x1f5a	; 0x1f5a <_ZN7UVIndex4initEv>
    1f76:	08 95       	ret

00001f78 <_ZN7UVIndex6enableEv>:
    1f78:	6b b1       	in	r22, 0x0b	; 11
    1f7a:	21 e0       	ldi	r18, 0x01	; 1
    1f7c:	30 e0       	ldi	r19, 0x00	; 0
    1f7e:	a9 01       	movw	r20, r18
    1f80:	fc 01       	movw	r30, r24
    1f82:	02 80       	ldd	r0, Z+2	; 0x02
    1f84:	02 c0       	rjmp	.+4      	; 0x1f8a <_ZN7UVIndex6enableEv+0x12>
    1f86:	44 0f       	add	r20, r20
    1f88:	55 1f       	adc	r21, r21
    1f8a:	0a 94       	dec	r0
    1f8c:	e2 f7       	brpl	.-8      	; 0x1f86 <_ZN7UVIndex6enableEv+0xe>
    1f8e:	46 2b       	or	r20, r22
    1f90:	4b b9       	out	0x0b, r20	; 11
    1f92:	4a b1       	in	r20, 0x0a	; 10
    1f94:	02 80       	ldd	r0, Z+2	; 0x02
    1f96:	02 c0       	rjmp	.+4      	; 0x1f9c <_ZN7UVIndex6enableEv+0x24>
    1f98:	22 0f       	add	r18, r18
    1f9a:	33 1f       	adc	r19, r19
    1f9c:	0a 94       	dec	r0
    1f9e:	e2 f7       	brpl	.-8      	; 0x1f98 <_ZN7UVIndex6enableEv+0x20>
    1fa0:	24 2b       	or	r18, r20
    1fa2:	2a b9       	out	0x0a, r18	; 10
    1fa4:	08 95       	ret

00001fa6 <_ZN7UVIndex7disableEv>:
    1fa6:	fc 01       	movw	r30, r24
    1fa8:	4b b1       	in	r20, 0x0b	; 11
    1faa:	21 e0       	ldi	r18, 0x01	; 1
    1fac:	30 e0       	ldi	r19, 0x00	; 0
    1fae:	b9 01       	movw	r22, r18
    1fb0:	02 80       	ldd	r0, Z+2	; 0x02
    1fb2:	02 c0       	rjmp	.+4      	; 0x1fb8 <_ZN7UVIndex7disableEv+0x12>
    1fb4:	66 0f       	add	r22, r22
    1fb6:	77 1f       	adc	r23, r23
    1fb8:	0a 94       	dec	r0
    1fba:	e2 f7       	brpl	.-8      	; 0x1fb4 <_ZN7UVIndex7disableEv+0xe>
    1fbc:	96 2f       	mov	r25, r22
    1fbe:	90 95       	com	r25
    1fc0:	94 23       	and	r25, r20
    1fc2:	9b b9       	out	0x0b, r25	; 11
    1fc4:	8a b1       	in	r24, 0x0a	; 10
    1fc6:	02 80       	ldd	r0, Z+2	; 0x02
    1fc8:	02 c0       	rjmp	.+4      	; 0x1fce <_ZN7UVIndex7disableEv+0x28>
    1fca:	22 0f       	add	r18, r18
    1fcc:	33 1f       	adc	r19, r19
    1fce:	0a 94       	dec	r0
    1fd0:	e2 f7       	brpl	.-8      	; 0x1fca <_ZN7UVIndex7disableEv+0x24>
    1fd2:	28 2b       	or	r18, r24
    1fd4:	2a b9       	out	0x0a, r18	; 10
    1fd6:	08 95       	ret

00001fd8 <_ZN7UVIndex4readEv>:
    1fd8:	0f 93       	push	r16
    1fda:	1f 93       	push	r17
    1fdc:	cf 93       	push	r28
    1fde:	df 93       	push	r29
    1fe0:	ec 01       	movw	r28, r24
    1fe2:	0e 94 bc 0f 	call	0x1f78	; 0x1f78 <_ZN7UVIndex6enableEv>
    1fe6:	8f e9       	ldi	r24, 0x9F	; 159
    1fe8:	9f e0       	ldi	r25, 0x0F	; 15
    1fea:	01 97       	sbiw	r24, 0x01	; 1
    1fec:	f1 f7       	brne	.-4      	; 0x1fea <_ZN7UVIndex4readEv+0x12>
    1fee:	00 c0       	rjmp	.+0      	; 0x1ff0 <_ZN7UVIndex4readEv+0x18>
    1ff0:	00 00       	nop
    1ff2:	87 ec       	ldi	r24, 0xC7	; 199
    1ff4:	80 93 7a 00 	sts	0x007A, r24
	#else
		//round up by default
		__ticks_dc = (uint32_t)(ceil(fabs(__tmp)));
	#endif

	__builtin_avr_delay_cycles(__ticks_dc);
    1ff8:	8f e0       	ldi	r24, 0x0F	; 15
    1ffa:	94 e0       	ldi	r25, 0x04	; 4
    1ffc:	01 97       	sbiw	r24, 0x01	; 1
    1ffe:	f1 f7       	brne	.-4      	; 0x1ffc <_ZN7UVIndex4readEv+0x24>
    2000:	00 c0       	rjmp	.+0      	; 0x2002 <_ZN7UVIndex4readEv+0x2a>
    2002:	00 00       	nop
    2004:	00 91 78 00 	lds	r16, 0x0078
    2008:	10 91 79 00 	lds	r17, 0x0079
    200c:	ce 01       	movw	r24, r28
    200e:	0e 94 d3 0f 	call	0x1fa6	; 0x1fa6 <_ZN7UVIndex7disableEv>
    2012:	c8 01       	movw	r24, r16
    2014:	93 70       	andi	r25, 0x03	; 3
    2016:	df 91       	pop	r29
    2018:	cf 91       	pop	r28
    201a:	1f 91       	pop	r17
    201c:	0f 91       	pop	r16
    201e:	08 95       	ret

00002020 <_ZN7UVIndex11UVIndexTaskEv>:
    2020:	0f 93       	push	r16
    2022:	1f 93       	push	r17
    2024:	cf 93       	push	r28
    2026:	df 93       	push	r29
    2028:	ec 01       	movw	r28, r24
    202a:	20 91 c9 06 	lds	r18, 0x06C9
    202e:	9d ec       	ldi	r25, 0xCD	; 205
    2030:	29 9f       	mul	r18, r25
    2032:	91 2d       	mov	r25, r1
    2034:	11 24       	eor	r1, r1
    2036:	96 95       	lsr	r25
    2038:	96 95       	lsr	r25
    203a:	89 2f       	mov	r24, r25
    203c:	88 0f       	add	r24, r24
    203e:	88 0f       	add	r24, r24
    2040:	98 0f       	add	r25, r24
    2042:	29 13       	cpse	r18, r25
    2044:	27 c0       	rjmp	.+78     	; 0x2094 <_ZN7UVIndex11UVIndexTaskEv+0x74>
    2046:	07 ec       	ldi	r16, 0xC7	; 199
    2048:	15 e0       	ldi	r17, 0x05	; 5
    204a:	89 e1       	ldi	r24, 0x19	; 25
    204c:	ef e8       	ldi	r30, 0x8F	; 143
    204e:	f5 e0       	ldi	r31, 0x05	; 5
    2050:	d8 01       	movw	r26, r16
    2052:	01 90       	ld	r0, Z+
    2054:	0d 92       	st	X+, r0
    2056:	8a 95       	dec	r24
    2058:	e1 f7       	brne	.-8      	; 0x2052 <_ZN7UVIndex11UVIndexTaskEv+0x32>
    205a:	b8 01       	movw	r22, r16
    205c:	88 81       	ld	r24, Y
    205e:	99 81       	ldd	r25, Y+1	; 0x01
    2060:	0e 94 ff 0e 	call	0x1dfe	; 0x1dfe <_ZN6serial4sendEPc>
    2064:	ce 01       	movw	r24, r28
    2066:	0e 94 ec 0f 	call	0x1fd8	; 0x1fd8 <_ZN7UVIndex4readEv>
    206a:	9f 93       	push	r25
    206c:	8f 93       	push	r24
    206e:	88 ea       	ldi	r24, 0xA8	; 168
    2070:	95 e0       	ldi	r25, 0x05	; 5
    2072:	9f 93       	push	r25
    2074:	8f 93       	push	r24
    2076:	1f 93       	push	r17
    2078:	0f 93       	push	r16
    207a:	0e 94 74 12 	call	0x24e8	; 0x24e8 <sprintf>
    207e:	b8 01       	movw	r22, r16
    2080:	88 81       	ld	r24, Y
    2082:	99 81       	ldd	r25, Y+1	; 0x01
    2084:	0e 94 ff 0e 	call	0x1dfe	; 0x1dfe <_ZN6serial4sendEPc>
    2088:	0f 90       	pop	r0
    208a:	0f 90       	pop	r0
    208c:	0f 90       	pop	r0
    208e:	0f 90       	pop	r0
    2090:	0f 90       	pop	r0
    2092:	0f 90       	pop	r0
    2094:	80 91 c9 06 	lds	r24, 0x06C9
    2098:	8f 5f       	subi	r24, 0xFF	; 255
    209a:	80 93 c9 06 	sts	0x06C9, r24
    209e:	df 91       	pop	r29
    20a0:	cf 91       	pop	r28
    20a2:	1f 91       	pop	r17
    20a4:	0f 91       	pop	r16
    20a6:	08 95       	ret

000020a8 <__mulsi3>:
    20a8:	db 01       	movw	r26, r22
    20aa:	8f 93       	push	r24
    20ac:	9f 93       	push	r25
    20ae:	0e 94 b9 10 	call	0x2172	; 0x2172 <__muluhisi3>
    20b2:	bf 91       	pop	r27
    20b4:	af 91       	pop	r26
    20b6:	a2 9f       	mul	r26, r18
    20b8:	80 0d       	add	r24, r0
    20ba:	91 1d       	adc	r25, r1
    20bc:	a3 9f       	mul	r26, r19
    20be:	90 0d       	add	r25, r0
    20c0:	b2 9f       	mul	r27, r18
    20c2:	90 0d       	add	r25, r0
    20c4:	11 24       	eor	r1, r1
    20c6:	08 95       	ret

000020c8 <__divmodhi4>:
    20c8:	97 fb       	bst	r25, 7
    20ca:	07 2e       	mov	r0, r23
    20cc:	16 f4       	brtc	.+4      	; 0x20d2 <__divmodhi4+0xa>
    20ce:	00 94       	com	r0
    20d0:	07 d0       	rcall	.+14     	; 0x20e0 <__divmodhi4_neg1>
    20d2:	77 fd       	sbrc	r23, 7
    20d4:	09 d0       	rcall	.+18     	; 0x20e8 <__divmodhi4_neg2>
    20d6:	0e 94 51 12 	call	0x24a2	; 0x24a2 <__udivmodhi4>
    20da:	07 fc       	sbrc	r0, 7
    20dc:	05 d0       	rcall	.+10     	; 0x20e8 <__divmodhi4_neg2>
    20de:	3e f4       	brtc	.+14     	; 0x20ee <__divmodhi4_exit>

000020e0 <__divmodhi4_neg1>:
    20e0:	90 95       	com	r25
    20e2:	81 95       	neg	r24
    20e4:	9f 4f       	sbci	r25, 0xFF	; 255
    20e6:	08 95       	ret

000020e8 <__divmodhi4_neg2>:
    20e8:	70 95       	com	r23
    20ea:	61 95       	neg	r22
    20ec:	7f 4f       	sbci	r23, 0xFF	; 255

000020ee <__divmodhi4_exit>:
    20ee:	08 95       	ret

000020f0 <__udivmodsi4>:
    20f0:	a1 e2       	ldi	r26, 0x21	; 33
    20f2:	1a 2e       	mov	r1, r26
    20f4:	aa 1b       	sub	r26, r26
    20f6:	bb 1b       	sub	r27, r27
    20f8:	fd 01       	movw	r30, r26
    20fa:	0d c0       	rjmp	.+26     	; 0x2116 <__udivmodsi4_ep>

000020fc <__udivmodsi4_loop>:
    20fc:	aa 1f       	adc	r26, r26
    20fe:	bb 1f       	adc	r27, r27
    2100:	ee 1f       	adc	r30, r30
    2102:	ff 1f       	adc	r31, r31
    2104:	a2 17       	cp	r26, r18
    2106:	b3 07       	cpc	r27, r19
    2108:	e4 07       	cpc	r30, r20
    210a:	f5 07       	cpc	r31, r21
    210c:	20 f0       	brcs	.+8      	; 0x2116 <__udivmodsi4_ep>
    210e:	a2 1b       	sub	r26, r18
    2110:	b3 0b       	sbc	r27, r19
    2112:	e4 0b       	sbc	r30, r20
    2114:	f5 0b       	sbc	r31, r21

00002116 <__udivmodsi4_ep>:
    2116:	66 1f       	adc	r22, r22
    2118:	77 1f       	adc	r23, r23
    211a:	88 1f       	adc	r24, r24
    211c:	99 1f       	adc	r25, r25
    211e:	1a 94       	dec	r1
    2120:	69 f7       	brne	.-38     	; 0x20fc <__udivmodsi4_loop>
    2122:	60 95       	com	r22
    2124:	70 95       	com	r23
    2126:	80 95       	com	r24
    2128:	90 95       	com	r25
    212a:	9b 01       	movw	r18, r22
    212c:	ac 01       	movw	r20, r24
    212e:	bd 01       	movw	r22, r26
    2130:	cf 01       	movw	r24, r30
    2132:	08 95       	ret

00002134 <__divmodsi4>:
    2134:	05 2e       	mov	r0, r21
    2136:	97 fb       	bst	r25, 7
    2138:	1e f4       	brtc	.+6      	; 0x2140 <__divmodsi4+0xc>
    213a:	00 94       	com	r0
    213c:	0e 94 b1 10 	call	0x2162	; 0x2162 <__negsi2>
    2140:	57 fd       	sbrc	r21, 7
    2142:	07 d0       	rcall	.+14     	; 0x2152 <__divmodsi4_neg2>
    2144:	0e 94 78 10 	call	0x20f0	; 0x20f0 <__udivmodsi4>
    2148:	07 fc       	sbrc	r0, 7
    214a:	03 d0       	rcall	.+6      	; 0x2152 <__divmodsi4_neg2>
    214c:	4e f4       	brtc	.+18     	; 0x2160 <__divmodsi4_exit>
    214e:	0c 94 b1 10 	jmp	0x2162	; 0x2162 <__negsi2>

00002152 <__divmodsi4_neg2>:
    2152:	50 95       	com	r21
    2154:	40 95       	com	r20
    2156:	30 95       	com	r19
    2158:	21 95       	neg	r18
    215a:	3f 4f       	sbci	r19, 0xFF	; 255
    215c:	4f 4f       	sbci	r20, 0xFF	; 255
    215e:	5f 4f       	sbci	r21, 0xFF	; 255

00002160 <__divmodsi4_exit>:
    2160:	08 95       	ret

00002162 <__negsi2>:
    2162:	90 95       	com	r25
    2164:	80 95       	com	r24
    2166:	70 95       	com	r23
    2168:	61 95       	neg	r22
    216a:	7f 4f       	sbci	r23, 0xFF	; 255
    216c:	8f 4f       	sbci	r24, 0xFF	; 255
    216e:	9f 4f       	sbci	r25, 0xFF	; 255
    2170:	08 95       	ret

00002172 <__muluhisi3>:
    2172:	0e 94 65 12 	call	0x24ca	; 0x24ca <__umulhisi3>
    2176:	a5 9f       	mul	r26, r21
    2178:	90 0d       	add	r25, r0
    217a:	b4 9f       	mul	r27, r20
    217c:	90 0d       	add	r25, r0
    217e:	a4 9f       	mul	r26, r20
    2180:	80 0d       	add	r24, r0
    2182:	91 1d       	adc	r25, r1
    2184:	11 24       	eor	r1, r1
    2186:	08 95       	ret

00002188 <__mulshisi3>:
    2188:	b7 ff       	sbrs	r27, 7
    218a:	0c 94 b9 10 	jmp	0x2172	; 0x2172 <__muluhisi3>

0000218e <__mulohisi3>:
    218e:	0e 94 b9 10 	call	0x2172	; 0x2172 <__muluhisi3>
    2192:	82 1b       	sub	r24, r18
    2194:	93 0b       	sbc	r25, r19
    2196:	08 95       	ret

00002198 <__muldi3>:
    2198:	df 93       	push	r29
    219a:	cf 93       	push	r28
    219c:	1f 93       	push	r17
    219e:	0f 93       	push	r16
    21a0:	9a 9d       	mul	r25, r10
    21a2:	f0 2d       	mov	r31, r0
    21a4:	21 9f       	mul	r18, r17
    21a6:	f0 0d       	add	r31, r0
    21a8:	8b 9d       	mul	r24, r11
    21aa:	f0 0d       	add	r31, r0
    21ac:	8a 9d       	mul	r24, r10
    21ae:	e0 2d       	mov	r30, r0
    21b0:	f1 0d       	add	r31, r1
    21b2:	03 9f       	mul	r16, r19
    21b4:	f0 0d       	add	r31, r0
    21b6:	02 9f       	mul	r16, r18
    21b8:	e0 0d       	add	r30, r0
    21ba:	f1 1d       	adc	r31, r1
    21bc:	4e 9d       	mul	r20, r14
    21be:	e0 0d       	add	r30, r0
    21c0:	f1 1d       	adc	r31, r1
    21c2:	5e 9d       	mul	r21, r14
    21c4:	f0 0d       	add	r31, r0
    21c6:	4f 9d       	mul	r20, r15
    21c8:	f0 0d       	add	r31, r0
    21ca:	7f 93       	push	r23
    21cc:	6f 93       	push	r22
    21ce:	bf 92       	push	r11
    21d0:	af 92       	push	r10
    21d2:	5f 93       	push	r21
    21d4:	4f 93       	push	r20
    21d6:	d5 01       	movw	r26, r10
    21d8:	0e 94 65 12 	call	0x24ca	; 0x24ca <__umulhisi3>
    21dc:	8b 01       	movw	r16, r22
    21de:	ac 01       	movw	r20, r24
    21e0:	d7 01       	movw	r26, r14
    21e2:	0e 94 65 12 	call	0x24ca	; 0x24ca <__umulhisi3>
    21e6:	eb 01       	movw	r28, r22
    21e8:	e8 0f       	add	r30, r24
    21ea:	f9 1f       	adc	r31, r25
    21ec:	d6 01       	movw	r26, r12
    21ee:	0e 94 1c 11 	call	0x2238	; 0x2238 <__muldi3_6>
    21f2:	2f 91       	pop	r18
    21f4:	3f 91       	pop	r19
    21f6:	d6 01       	movw	r26, r12
    21f8:	0e 94 65 12 	call	0x24ca	; 0x24ca <__umulhisi3>
    21fc:	c6 0f       	add	r28, r22
    21fe:	d7 1f       	adc	r29, r23
    2200:	e8 1f       	adc	r30, r24
    2202:	f9 1f       	adc	r31, r25
    2204:	af 91       	pop	r26
    2206:	bf 91       	pop	r27
    2208:	0e 94 1c 11 	call	0x2238	; 0x2238 <__muldi3_6>
    220c:	2f 91       	pop	r18
    220e:	3f 91       	pop	r19
    2210:	0e 94 65 12 	call	0x24ca	; 0x24ca <__umulhisi3>
    2214:	c6 0f       	add	r28, r22
    2216:	d7 1f       	adc	r29, r23
    2218:	e8 1f       	adc	r30, r24
    221a:	f9 1f       	adc	r31, r25
    221c:	d6 01       	movw	r26, r12
    221e:	0e 94 65 12 	call	0x24ca	; 0x24ca <__umulhisi3>
    2222:	e6 0f       	add	r30, r22
    2224:	f7 1f       	adc	r31, r23
    2226:	98 01       	movw	r18, r16
    2228:	be 01       	movw	r22, r28
    222a:	cf 01       	movw	r24, r30
    222c:	11 24       	eor	r1, r1
    222e:	0f 91       	pop	r16
    2230:	1f 91       	pop	r17
    2232:	cf 91       	pop	r28
    2234:	df 91       	pop	r29
    2236:	08 95       	ret

00002238 <__muldi3_6>:
    2238:	0e 94 65 12 	call	0x24ca	; 0x24ca <__umulhisi3>
    223c:	46 0f       	add	r20, r22
    223e:	57 1f       	adc	r21, r23
    2240:	c8 1f       	adc	r28, r24
    2242:	d9 1f       	adc	r29, r25
    2244:	08 f4       	brcc	.+2      	; 0x2248 <__muldi3_6+0x10>
    2246:	31 96       	adiw	r30, 0x01	; 1
    2248:	08 95       	ret

0000224a <__moddi3>:
    224a:	68 94       	set
    224c:	01 c0       	rjmp	.+2      	; 0x2250 <__divdi3_moddi3>

0000224e <__divdi3>:
    224e:	e8 94       	clt

00002250 <__divdi3_moddi3>:
    2250:	f9 2f       	mov	r31, r25
    2252:	f1 2b       	or	r31, r17
    2254:	12 f0       	brmi	.+4      	; 0x225a <__divdi3_moddi3+0xa>
    2256:	0c 94 59 11 	jmp	0x22b2	; 0x22b2 <__udivdi3_umoddi3>
    225a:	a0 e0       	ldi	r26, 0x00	; 0
    225c:	b0 e0       	ldi	r27, 0x00	; 0
    225e:	e3 e3       	ldi	r30, 0x33	; 51
    2260:	f1 e1       	ldi	r31, 0x11	; 17
    2262:	0c 94 cb 11 	jmp	0x2396	; 0x2396 <__prologue_saves__+0xc>
    2266:	09 2e       	mov	r0, r25
    2268:	05 94       	asr	r0
    226a:	22 f4       	brpl	.+8      	; 0x2274 <__divdi3_moddi3+0x24>
    226c:	0e 94 b5 11 	call	0x236a	; 0x236a <__negdi2>
    2270:	11 23       	and	r17, r17
    2272:	92 f4       	brpl	.+36     	; 0x2298 <__divdi3_moddi3+0x48>
    2274:	f0 e8       	ldi	r31, 0x80	; 128
    2276:	0f 26       	eor	r0, r31
    2278:	ff ef       	ldi	r31, 0xFF	; 255
    227a:	e0 94       	com	r14
    227c:	f0 94       	com	r15
    227e:	00 95       	com	r16
    2280:	10 95       	com	r17
    2282:	b0 94       	com	r11
    2284:	c0 94       	com	r12
    2286:	d0 94       	com	r13
    2288:	a1 94       	neg	r10
    228a:	bf 0a       	sbc	r11, r31
    228c:	cf 0a       	sbc	r12, r31
    228e:	df 0a       	sbc	r13, r31
    2290:	ef 0a       	sbc	r14, r31
    2292:	ff 0a       	sbc	r15, r31
    2294:	0f 0b       	sbc	r16, r31
    2296:	1f 0b       	sbc	r17, r31
    2298:	0e 94 64 11 	call	0x22c8	; 0x22c8 <__udivmod64>
    229c:	07 fc       	sbrc	r0, 7
    229e:	0e 94 b5 11 	call	0x236a	; 0x236a <__negdi2>
    22a2:	cd b7       	in	r28, 0x3d	; 61
    22a4:	de b7       	in	r29, 0x3e	; 62
    22a6:	ec e0       	ldi	r30, 0x0C	; 12
    22a8:	0c 94 e7 11 	jmp	0x23ce	; 0x23ce <__epilogue_restores__+0xc>

000022ac <__umoddi3>:
    22ac:	68 94       	set
    22ae:	01 c0       	rjmp	.+2      	; 0x22b2 <__udivdi3_umoddi3>

000022b0 <__udivdi3>:
    22b0:	e8 94       	clt

000022b2 <__udivdi3_umoddi3>:
    22b2:	8f 92       	push	r8
    22b4:	9f 92       	push	r9
    22b6:	cf 93       	push	r28
    22b8:	df 93       	push	r29
    22ba:	0e 94 64 11 	call	0x22c8	; 0x22c8 <__udivmod64>
    22be:	df 91       	pop	r29
    22c0:	cf 91       	pop	r28
    22c2:	9f 90       	pop	r9
    22c4:	8f 90       	pop	r8
    22c6:	08 95       	ret

000022c8 <__udivmod64>:
    22c8:	88 24       	eor	r8, r8
    22ca:	99 24       	eor	r9, r9
    22cc:	f4 01       	movw	r30, r8
    22ce:	e4 01       	movw	r28, r8
    22d0:	b0 e4       	ldi	r27, 0x40	; 64
    22d2:	9f 93       	push	r25
    22d4:	aa 27       	eor	r26, r26
    22d6:	9a 15       	cp	r25, r10
    22d8:	8b 04       	cpc	r8, r11
    22da:	9c 04       	cpc	r9, r12
    22dc:	ed 05       	cpc	r30, r13
    22de:	fe 05       	cpc	r31, r14
    22e0:	cf 05       	cpc	r28, r15
    22e2:	d0 07       	cpc	r29, r16
    22e4:	a1 07       	cpc	r26, r17
    22e6:	98 f4       	brcc	.+38     	; 0x230e <__udivmod64+0x46>
    22e8:	ad 2f       	mov	r26, r29
    22ea:	dc 2f       	mov	r29, r28
    22ec:	cf 2f       	mov	r28, r31
    22ee:	fe 2f       	mov	r31, r30
    22f0:	e9 2d       	mov	r30, r9
    22f2:	98 2c       	mov	r9, r8
    22f4:	89 2e       	mov	r8, r25
    22f6:	98 2f       	mov	r25, r24
    22f8:	87 2f       	mov	r24, r23
    22fa:	76 2f       	mov	r23, r22
    22fc:	65 2f       	mov	r22, r21
    22fe:	54 2f       	mov	r21, r20
    2300:	43 2f       	mov	r20, r19
    2302:	32 2f       	mov	r19, r18
    2304:	22 27       	eor	r18, r18
    2306:	b8 50       	subi	r27, 0x08	; 8
    2308:	31 f7       	brne	.-52     	; 0x22d6 <__udivmod64+0xe>
    230a:	bf 91       	pop	r27
    230c:	27 c0       	rjmp	.+78     	; 0x235c <__udivmod64+0x94>
    230e:	1b 2e       	mov	r1, r27
    2310:	bf 91       	pop	r27
    2312:	bb 27       	eor	r27, r27
    2314:	22 0f       	add	r18, r18
    2316:	33 1f       	adc	r19, r19
    2318:	44 1f       	adc	r20, r20
    231a:	55 1f       	adc	r21, r21
    231c:	66 1f       	adc	r22, r22
    231e:	77 1f       	adc	r23, r23
    2320:	88 1f       	adc	r24, r24
    2322:	99 1f       	adc	r25, r25
    2324:	88 1c       	adc	r8, r8
    2326:	99 1c       	adc	r9, r9
    2328:	ee 1f       	adc	r30, r30
    232a:	ff 1f       	adc	r31, r31
    232c:	cc 1f       	adc	r28, r28
    232e:	dd 1f       	adc	r29, r29
    2330:	aa 1f       	adc	r26, r26
    2332:	bb 1f       	adc	r27, r27
    2334:	8a 14       	cp	r8, r10
    2336:	9b 04       	cpc	r9, r11
    2338:	ec 05       	cpc	r30, r12
    233a:	fd 05       	cpc	r31, r13
    233c:	ce 05       	cpc	r28, r14
    233e:	df 05       	cpc	r29, r15
    2340:	a0 07       	cpc	r26, r16
    2342:	b1 07       	cpc	r27, r17
    2344:	48 f0       	brcs	.+18     	; 0x2358 <__udivmod64+0x90>
    2346:	8a 18       	sub	r8, r10
    2348:	9b 08       	sbc	r9, r11
    234a:	ec 09       	sbc	r30, r12
    234c:	fd 09       	sbc	r31, r13
    234e:	ce 09       	sbc	r28, r14
    2350:	df 09       	sbc	r29, r15
    2352:	a0 0b       	sbc	r26, r16
    2354:	b1 0b       	sbc	r27, r17
    2356:	21 60       	ori	r18, 0x01	; 1
    2358:	1a 94       	dec	r1
    235a:	e1 f6       	brne	.-72     	; 0x2314 <__udivmod64+0x4c>
    235c:	2e f4       	brtc	.+10     	; 0x2368 <__udivmod64+0xa0>
    235e:	94 01       	movw	r18, r8
    2360:	af 01       	movw	r20, r30
    2362:	be 01       	movw	r22, r28
    2364:	cd 01       	movw	r24, r26
    2366:	00 0c       	add	r0, r0
    2368:	08 95       	ret

0000236a <__negdi2>:
    236a:	60 95       	com	r22
    236c:	70 95       	com	r23
    236e:	80 95       	com	r24
    2370:	90 95       	com	r25
    2372:	30 95       	com	r19
    2374:	40 95       	com	r20
    2376:	50 95       	com	r21
    2378:	21 95       	neg	r18
    237a:	3f 4f       	sbci	r19, 0xFF	; 255
    237c:	4f 4f       	sbci	r20, 0xFF	; 255
    237e:	5f 4f       	sbci	r21, 0xFF	; 255
    2380:	6f 4f       	sbci	r22, 0xFF	; 255
    2382:	7f 4f       	sbci	r23, 0xFF	; 255
    2384:	8f 4f       	sbci	r24, 0xFF	; 255
    2386:	9f 4f       	sbci	r25, 0xFF	; 255
    2388:	08 95       	ret

0000238a <__prologue_saves__>:
    238a:	2f 92       	push	r2
    238c:	3f 92       	push	r3
    238e:	4f 92       	push	r4
    2390:	5f 92       	push	r5
    2392:	6f 92       	push	r6
    2394:	7f 92       	push	r7
    2396:	8f 92       	push	r8
    2398:	9f 92       	push	r9
    239a:	af 92       	push	r10
    239c:	bf 92       	push	r11
    239e:	cf 92       	push	r12
    23a0:	df 92       	push	r13
    23a2:	ef 92       	push	r14
    23a4:	ff 92       	push	r15
    23a6:	0f 93       	push	r16
    23a8:	1f 93       	push	r17
    23aa:	cf 93       	push	r28
    23ac:	df 93       	push	r29
    23ae:	cd b7       	in	r28, 0x3d	; 61
    23b0:	de b7       	in	r29, 0x3e	; 62
    23b2:	ca 1b       	sub	r28, r26
    23b4:	db 0b       	sbc	r29, r27
    23b6:	0f b6       	in	r0, 0x3f	; 63
    23b8:	f8 94       	cli
    23ba:	de bf       	out	0x3e, r29	; 62
    23bc:	0f be       	out	0x3f, r0	; 63
    23be:	cd bf       	out	0x3d, r28	; 61
    23c0:	09 94       	ijmp

000023c2 <__epilogue_restores__>:
    23c2:	2a 88       	ldd	r2, Y+18	; 0x12
    23c4:	39 88       	ldd	r3, Y+17	; 0x11
    23c6:	48 88       	ldd	r4, Y+16	; 0x10
    23c8:	5f 84       	ldd	r5, Y+15	; 0x0f
    23ca:	6e 84       	ldd	r6, Y+14	; 0x0e
    23cc:	7d 84       	ldd	r7, Y+13	; 0x0d
    23ce:	8c 84       	ldd	r8, Y+12	; 0x0c
    23d0:	9b 84       	ldd	r9, Y+11	; 0x0b
    23d2:	aa 84       	ldd	r10, Y+10	; 0x0a
    23d4:	b9 84       	ldd	r11, Y+9	; 0x09
    23d6:	c8 84       	ldd	r12, Y+8	; 0x08
    23d8:	df 80       	ldd	r13, Y+7	; 0x07
    23da:	ee 80       	ldd	r14, Y+6	; 0x06
    23dc:	fd 80       	ldd	r15, Y+5	; 0x05
    23de:	0c 81       	ldd	r16, Y+4	; 0x04
    23e0:	1b 81       	ldd	r17, Y+3	; 0x03
    23e2:	aa 81       	ldd	r26, Y+2	; 0x02
    23e4:	b9 81       	ldd	r27, Y+1	; 0x01
    23e6:	ce 0f       	add	r28, r30
    23e8:	d1 1d       	adc	r29, r1
    23ea:	0f b6       	in	r0, 0x3f	; 63
    23ec:	f8 94       	cli
    23ee:	de bf       	out	0x3e, r29	; 62
    23f0:	0f be       	out	0x3f, r0	; 63
    23f2:	cd bf       	out	0x3d, r28	; 61
    23f4:	ed 01       	movw	r28, r26
    23f6:	08 95       	ret

000023f8 <__ashldi3>:
    23f8:	0f 93       	push	r16
    23fa:	08 30       	cpi	r16, 0x08	; 8
    23fc:	90 f0       	brcs	.+36     	; 0x2422 <__ashldi3+0x2a>
    23fe:	98 2f       	mov	r25, r24
    2400:	87 2f       	mov	r24, r23
    2402:	76 2f       	mov	r23, r22
    2404:	65 2f       	mov	r22, r21
    2406:	54 2f       	mov	r21, r20
    2408:	43 2f       	mov	r20, r19
    240a:	32 2f       	mov	r19, r18
    240c:	22 27       	eor	r18, r18
    240e:	08 50       	subi	r16, 0x08	; 8
    2410:	f4 cf       	rjmp	.-24     	; 0x23fa <__ashldi3+0x2>
    2412:	22 0f       	add	r18, r18
    2414:	33 1f       	adc	r19, r19
    2416:	44 1f       	adc	r20, r20
    2418:	55 1f       	adc	r21, r21
    241a:	66 1f       	adc	r22, r22
    241c:	77 1f       	adc	r23, r23
    241e:	88 1f       	adc	r24, r24
    2420:	99 1f       	adc	r25, r25
    2422:	0a 95       	dec	r16
    2424:	b2 f7       	brpl	.-20     	; 0x2412 <__ashldi3+0x1a>
    2426:	0f 91       	pop	r16
    2428:	08 95       	ret

0000242a <__ashrdi3>:
    242a:	97 fb       	bst	r25, 7
    242c:	10 f8       	bld	r1, 0

0000242e <__lshrdi3>:
    242e:	16 94       	lsr	r1
    2430:	00 08       	sbc	r0, r0
    2432:	0f 93       	push	r16
    2434:	08 30       	cpi	r16, 0x08	; 8
    2436:	98 f0       	brcs	.+38     	; 0x245e <__lshrdi3+0x30>
    2438:	08 50       	subi	r16, 0x08	; 8
    243a:	23 2f       	mov	r18, r19
    243c:	34 2f       	mov	r19, r20
    243e:	45 2f       	mov	r20, r21
    2440:	56 2f       	mov	r21, r22
    2442:	67 2f       	mov	r22, r23
    2444:	78 2f       	mov	r23, r24
    2446:	89 2f       	mov	r24, r25
    2448:	90 2d       	mov	r25, r0
    244a:	f4 cf       	rjmp	.-24     	; 0x2434 <__lshrdi3+0x6>
    244c:	05 94       	asr	r0
    244e:	97 95       	ror	r25
    2450:	87 95       	ror	r24
    2452:	77 95       	ror	r23
    2454:	67 95       	ror	r22
    2456:	57 95       	ror	r21
    2458:	47 95       	ror	r20
    245a:	37 95       	ror	r19
    245c:	27 95       	ror	r18
    245e:	0a 95       	dec	r16
    2460:	aa f7       	brpl	.-22     	; 0x244c <__lshrdi3+0x1e>
    2462:	0f 91       	pop	r16
    2464:	08 95       	ret

00002466 <__adddi3>:
    2466:	2a 0d       	add	r18, r10
    2468:	3b 1d       	adc	r19, r11
    246a:	4c 1d       	adc	r20, r12
    246c:	5d 1d       	adc	r21, r13
    246e:	6e 1d       	adc	r22, r14
    2470:	7f 1d       	adc	r23, r15
    2472:	80 1f       	adc	r24, r16
    2474:	91 1f       	adc	r25, r17
    2476:	08 95       	ret

00002478 <__subdi3>:
    2478:	2a 19       	sub	r18, r10
    247a:	3b 09       	sbc	r19, r11
    247c:	4c 09       	sbc	r20, r12
    247e:	5d 09       	sbc	r21, r13
    2480:	6e 09       	sbc	r22, r14
    2482:	7f 09       	sbc	r23, r15
    2484:	80 0b       	sbc	r24, r16
    2486:	91 0b       	sbc	r25, r17
    2488:	08 95       	ret

0000248a <__cmpdi2_s8>:
    248a:	00 24       	eor	r0, r0
    248c:	a7 fd       	sbrc	r26, 7
    248e:	00 94       	com	r0
    2490:	2a 17       	cp	r18, r26
    2492:	30 05       	cpc	r19, r0
    2494:	40 05       	cpc	r20, r0
    2496:	50 05       	cpc	r21, r0
    2498:	60 05       	cpc	r22, r0
    249a:	70 05       	cpc	r23, r0
    249c:	80 05       	cpc	r24, r0
    249e:	90 05       	cpc	r25, r0
    24a0:	08 95       	ret

000024a2 <__udivmodhi4>:
    24a2:	aa 1b       	sub	r26, r26
    24a4:	bb 1b       	sub	r27, r27
    24a6:	51 e1       	ldi	r21, 0x11	; 17
    24a8:	07 c0       	rjmp	.+14     	; 0x24b8 <__udivmodhi4_ep>

000024aa <__udivmodhi4_loop>:
    24aa:	aa 1f       	adc	r26, r26
    24ac:	bb 1f       	adc	r27, r27
    24ae:	a6 17       	cp	r26, r22
    24b0:	b7 07       	cpc	r27, r23
    24b2:	10 f0       	brcs	.+4      	; 0x24b8 <__udivmodhi4_ep>
    24b4:	a6 1b       	sub	r26, r22
    24b6:	b7 0b       	sbc	r27, r23

000024b8 <__udivmodhi4_ep>:
    24b8:	88 1f       	adc	r24, r24
    24ba:	99 1f       	adc	r25, r25
    24bc:	5a 95       	dec	r21
    24be:	a9 f7       	brne	.-22     	; 0x24aa <__udivmodhi4_loop>
    24c0:	80 95       	com	r24
    24c2:	90 95       	com	r25
    24c4:	bc 01       	movw	r22, r24
    24c6:	cd 01       	movw	r24, r26
    24c8:	08 95       	ret

000024ca <__umulhisi3>:
    24ca:	a2 9f       	mul	r26, r18
    24cc:	b0 01       	movw	r22, r0
    24ce:	b3 9f       	mul	r27, r19
    24d0:	c0 01       	movw	r24, r0
    24d2:	a3 9f       	mul	r26, r19
    24d4:	70 0d       	add	r23, r0
    24d6:	81 1d       	adc	r24, r1
    24d8:	11 24       	eor	r1, r1
    24da:	91 1d       	adc	r25, r1
    24dc:	b2 9f       	mul	r27, r18
    24de:	70 0d       	add	r23, r0
    24e0:	81 1d       	adc	r24, r1
    24e2:	11 24       	eor	r1, r1
    24e4:	91 1d       	adc	r25, r1
    24e6:	08 95       	ret

000024e8 <sprintf>:
    24e8:	ae e0       	ldi	r26, 0x0E	; 14
    24ea:	b0 e0       	ldi	r27, 0x00	; 0
    24ec:	ea e7       	ldi	r30, 0x7A	; 122
    24ee:	f2 e1       	ldi	r31, 0x12	; 18
    24f0:	0c 94 d3 11 	jmp	0x23a6	; 0x23a6 <__prologue_saves__+0x1c>
    24f4:	0d 89       	ldd	r16, Y+21	; 0x15
    24f6:	1e 89       	ldd	r17, Y+22	; 0x16
    24f8:	86 e0       	ldi	r24, 0x06	; 6
    24fa:	8c 83       	std	Y+4, r24	; 0x04
    24fc:	1a 83       	std	Y+2, r17	; 0x02
    24fe:	09 83       	std	Y+1, r16	; 0x01
    2500:	8f ef       	ldi	r24, 0xFF	; 255
    2502:	9f e7       	ldi	r25, 0x7F	; 127
    2504:	9e 83       	std	Y+6, r25	; 0x06
    2506:	8d 83       	std	Y+5, r24	; 0x05
    2508:	ae 01       	movw	r20, r28
    250a:	47 5e       	subi	r20, 0xE7	; 231
    250c:	5f 4f       	sbci	r21, 0xFF	; 255
    250e:	6f 89       	ldd	r22, Y+23	; 0x17
    2510:	78 8d       	ldd	r23, Y+24	; 0x18
    2512:	ce 01       	movw	r24, r28
    2514:	01 96       	adiw	r24, 0x01	; 1
    2516:	0e 94 97 12 	call	0x252e	; 0x252e <vfprintf>
    251a:	2f 81       	ldd	r18, Y+7	; 0x07
    251c:	38 85       	ldd	r19, Y+8	; 0x08
    251e:	f8 01       	movw	r30, r16
    2520:	e2 0f       	add	r30, r18
    2522:	f3 1f       	adc	r31, r19
    2524:	10 82       	st	Z, r1
    2526:	2e 96       	adiw	r28, 0x0e	; 14
    2528:	e4 e0       	ldi	r30, 0x04	; 4
    252a:	0c 94 ef 11 	jmp	0x23de	; 0x23de <__epilogue_restores__+0x1c>

0000252e <vfprintf>:
    252e:	ac e0       	ldi	r26, 0x0C	; 12
    2530:	b0 e0       	ldi	r27, 0x00	; 0
    2532:	ed e9       	ldi	r30, 0x9D	; 157
    2534:	f2 e1       	ldi	r31, 0x12	; 18
    2536:	0c 94 c5 11 	jmp	0x238a	; 0x238a <__prologue_saves__>
    253a:	7c 01       	movw	r14, r24
    253c:	6b 01       	movw	r12, r22
    253e:	8a 01       	movw	r16, r20
    2540:	fc 01       	movw	r30, r24
    2542:	17 82       	std	Z+7, r1	; 0x07
    2544:	16 82       	std	Z+6, r1	; 0x06
    2546:	83 81       	ldd	r24, Z+3	; 0x03
    2548:	81 ff       	sbrs	r24, 1
    254a:	bd c1       	rjmp	.+890    	; 0x28c6 <vfprintf+0x398>
    254c:	ce 01       	movw	r24, r28
    254e:	01 96       	adiw	r24, 0x01	; 1
    2550:	4c 01       	movw	r8, r24
    2552:	f7 01       	movw	r30, r14
    2554:	93 81       	ldd	r25, Z+3	; 0x03
    2556:	f6 01       	movw	r30, r12
    2558:	93 fd       	sbrc	r25, 3
    255a:	85 91       	lpm	r24, Z+
    255c:	93 ff       	sbrs	r25, 3
    255e:	81 91       	ld	r24, Z+
    2560:	6f 01       	movw	r12, r30
    2562:	88 23       	and	r24, r24
    2564:	09 f4       	brne	.+2      	; 0x2568 <vfprintf+0x3a>
    2566:	ab c1       	rjmp	.+854    	; 0x28be <vfprintf+0x390>
    2568:	85 32       	cpi	r24, 0x25	; 37
    256a:	39 f4       	brne	.+14     	; 0x257a <vfprintf+0x4c>
    256c:	93 fd       	sbrc	r25, 3
    256e:	85 91       	lpm	r24, Z+
    2570:	93 ff       	sbrs	r25, 3
    2572:	81 91       	ld	r24, Z+
    2574:	6f 01       	movw	r12, r30
    2576:	85 32       	cpi	r24, 0x25	; 37
    2578:	29 f4       	brne	.+10     	; 0x2584 <vfprintf+0x56>
    257a:	b7 01       	movw	r22, r14
    257c:	90 e0       	ldi	r25, 0x00	; 0
    257e:	0e 94 7f 14 	call	0x28fe	; 0x28fe <fputc>
    2582:	e7 cf       	rjmp	.-50     	; 0x2552 <vfprintf+0x24>
    2584:	51 2c       	mov	r5, r1
    2586:	31 2c       	mov	r3, r1
    2588:	20 e0       	ldi	r18, 0x00	; 0
    258a:	20 32       	cpi	r18, 0x20	; 32
    258c:	a0 f4       	brcc	.+40     	; 0x25b6 <vfprintf+0x88>
    258e:	8b 32       	cpi	r24, 0x2B	; 43
    2590:	69 f0       	breq	.+26     	; 0x25ac <vfprintf+0x7e>
    2592:	30 f4       	brcc	.+12     	; 0x25a0 <vfprintf+0x72>
    2594:	80 32       	cpi	r24, 0x20	; 32
    2596:	59 f0       	breq	.+22     	; 0x25ae <vfprintf+0x80>
    2598:	83 32       	cpi	r24, 0x23	; 35
    259a:	69 f4       	brne	.+26     	; 0x25b6 <vfprintf+0x88>
    259c:	20 61       	ori	r18, 0x10	; 16
    259e:	2c c0       	rjmp	.+88     	; 0x25f8 <vfprintf+0xca>
    25a0:	8d 32       	cpi	r24, 0x2D	; 45
    25a2:	39 f0       	breq	.+14     	; 0x25b2 <vfprintf+0x84>
    25a4:	80 33       	cpi	r24, 0x30	; 48
    25a6:	39 f4       	brne	.+14     	; 0x25b6 <vfprintf+0x88>
    25a8:	21 60       	ori	r18, 0x01	; 1
    25aa:	26 c0       	rjmp	.+76     	; 0x25f8 <vfprintf+0xca>
    25ac:	22 60       	ori	r18, 0x02	; 2
    25ae:	24 60       	ori	r18, 0x04	; 4
    25b0:	23 c0       	rjmp	.+70     	; 0x25f8 <vfprintf+0xca>
    25b2:	28 60       	ori	r18, 0x08	; 8
    25b4:	21 c0       	rjmp	.+66     	; 0x25f8 <vfprintf+0xca>
    25b6:	27 fd       	sbrc	r18, 7
    25b8:	27 c0       	rjmp	.+78     	; 0x2608 <vfprintf+0xda>
    25ba:	30 ed       	ldi	r19, 0xD0	; 208
    25bc:	38 0f       	add	r19, r24
    25be:	3a 30       	cpi	r19, 0x0A	; 10
    25c0:	78 f4       	brcc	.+30     	; 0x25e0 <vfprintf+0xb2>
    25c2:	26 ff       	sbrs	r18, 6
    25c4:	06 c0       	rjmp	.+12     	; 0x25d2 <vfprintf+0xa4>
    25c6:	fa e0       	ldi	r31, 0x0A	; 10
    25c8:	5f 9e       	mul	r5, r31
    25ca:	30 0d       	add	r19, r0
    25cc:	11 24       	eor	r1, r1
    25ce:	53 2e       	mov	r5, r19
    25d0:	13 c0       	rjmp	.+38     	; 0x25f8 <vfprintf+0xca>
    25d2:	8a e0       	ldi	r24, 0x0A	; 10
    25d4:	38 9e       	mul	r3, r24
    25d6:	30 0d       	add	r19, r0
    25d8:	11 24       	eor	r1, r1
    25da:	33 2e       	mov	r3, r19
    25dc:	20 62       	ori	r18, 0x20	; 32
    25de:	0c c0       	rjmp	.+24     	; 0x25f8 <vfprintf+0xca>
    25e0:	8e 32       	cpi	r24, 0x2E	; 46
    25e2:	21 f4       	brne	.+8      	; 0x25ec <vfprintf+0xbe>
    25e4:	26 fd       	sbrc	r18, 6
    25e6:	6b c1       	rjmp	.+726    	; 0x28be <vfprintf+0x390>
    25e8:	20 64       	ori	r18, 0x40	; 64
    25ea:	06 c0       	rjmp	.+12     	; 0x25f8 <vfprintf+0xca>
    25ec:	8c 36       	cpi	r24, 0x6C	; 108
    25ee:	11 f4       	brne	.+4      	; 0x25f4 <vfprintf+0xc6>
    25f0:	20 68       	ori	r18, 0x80	; 128
    25f2:	02 c0       	rjmp	.+4      	; 0x25f8 <vfprintf+0xca>
    25f4:	88 36       	cpi	r24, 0x68	; 104
    25f6:	41 f4       	brne	.+16     	; 0x2608 <vfprintf+0xda>
    25f8:	f6 01       	movw	r30, r12
    25fa:	93 fd       	sbrc	r25, 3
    25fc:	85 91       	lpm	r24, Z+
    25fe:	93 ff       	sbrs	r25, 3
    2600:	81 91       	ld	r24, Z+
    2602:	6f 01       	movw	r12, r30
    2604:	81 11       	cpse	r24, r1
    2606:	c1 cf       	rjmp	.-126    	; 0x258a <vfprintf+0x5c>
    2608:	98 2f       	mov	r25, r24
    260a:	9f 7d       	andi	r25, 0xDF	; 223
    260c:	95 54       	subi	r25, 0x45	; 69
    260e:	93 30       	cpi	r25, 0x03	; 3
    2610:	28 f4       	brcc	.+10     	; 0x261c <vfprintf+0xee>
    2612:	0c 5f       	subi	r16, 0xFC	; 252
    2614:	1f 4f       	sbci	r17, 0xFF	; 255
    2616:	ff e3       	ldi	r31, 0x3F	; 63
    2618:	f9 83       	std	Y+1, r31	; 0x01
    261a:	0d c0       	rjmp	.+26     	; 0x2636 <vfprintf+0x108>
    261c:	83 36       	cpi	r24, 0x63	; 99
    261e:	31 f0       	breq	.+12     	; 0x262c <vfprintf+0xfe>
    2620:	83 37       	cpi	r24, 0x73	; 115
    2622:	71 f0       	breq	.+28     	; 0x2640 <vfprintf+0x112>
    2624:	83 35       	cpi	r24, 0x53	; 83
    2626:	09 f0       	breq	.+2      	; 0x262a <vfprintf+0xfc>
    2628:	5b c0       	rjmp	.+182    	; 0x26e0 <vfprintf+0x1b2>
    262a:	22 c0       	rjmp	.+68     	; 0x2670 <vfprintf+0x142>
    262c:	f8 01       	movw	r30, r16
    262e:	80 81       	ld	r24, Z
    2630:	89 83       	std	Y+1, r24	; 0x01
    2632:	0e 5f       	subi	r16, 0xFE	; 254
    2634:	1f 4f       	sbci	r17, 0xFF	; 255
    2636:	44 24       	eor	r4, r4
    2638:	43 94       	inc	r4
    263a:	51 2c       	mov	r5, r1
    263c:	54 01       	movw	r10, r8
    263e:	15 c0       	rjmp	.+42     	; 0x266a <vfprintf+0x13c>
    2640:	38 01       	movw	r6, r16
    2642:	f2 e0       	ldi	r31, 0x02	; 2
    2644:	6f 0e       	add	r6, r31
    2646:	71 1c       	adc	r7, r1
    2648:	f8 01       	movw	r30, r16
    264a:	a0 80       	ld	r10, Z
    264c:	b1 80       	ldd	r11, Z+1	; 0x01
    264e:	26 ff       	sbrs	r18, 6
    2650:	03 c0       	rjmp	.+6      	; 0x2658 <vfprintf+0x12a>
    2652:	65 2d       	mov	r22, r5
    2654:	70 e0       	ldi	r23, 0x00	; 0
    2656:	02 c0       	rjmp	.+4      	; 0x265c <vfprintf+0x12e>
    2658:	6f ef       	ldi	r22, 0xFF	; 255
    265a:	7f ef       	ldi	r23, 0xFF	; 255
    265c:	c5 01       	movw	r24, r10
    265e:	2c 87       	std	Y+12, r18	; 0x0c
    2660:	0e 94 74 14 	call	0x28e8	; 0x28e8 <strnlen>
    2664:	2c 01       	movw	r4, r24
    2666:	83 01       	movw	r16, r6
    2668:	2c 85       	ldd	r18, Y+12	; 0x0c
    266a:	2f 77       	andi	r18, 0x7F	; 127
    266c:	22 2e       	mov	r2, r18
    266e:	17 c0       	rjmp	.+46     	; 0x269e <vfprintf+0x170>
    2670:	38 01       	movw	r6, r16
    2672:	f2 e0       	ldi	r31, 0x02	; 2
    2674:	6f 0e       	add	r6, r31
    2676:	71 1c       	adc	r7, r1
    2678:	f8 01       	movw	r30, r16
    267a:	a0 80       	ld	r10, Z
    267c:	b1 80       	ldd	r11, Z+1	; 0x01
    267e:	26 ff       	sbrs	r18, 6
    2680:	03 c0       	rjmp	.+6      	; 0x2688 <vfprintf+0x15a>
    2682:	65 2d       	mov	r22, r5
    2684:	70 e0       	ldi	r23, 0x00	; 0
    2686:	02 c0       	rjmp	.+4      	; 0x268c <vfprintf+0x15e>
    2688:	6f ef       	ldi	r22, 0xFF	; 255
    268a:	7f ef       	ldi	r23, 0xFF	; 255
    268c:	c5 01       	movw	r24, r10
    268e:	2c 87       	std	Y+12, r18	; 0x0c
    2690:	0e 94 69 14 	call	0x28d2	; 0x28d2 <strnlen_P>
    2694:	2c 01       	movw	r4, r24
    2696:	2c 85       	ldd	r18, Y+12	; 0x0c
    2698:	20 68       	ori	r18, 0x80	; 128
    269a:	22 2e       	mov	r2, r18
    269c:	83 01       	movw	r16, r6
    269e:	23 fc       	sbrc	r2, 3
    26a0:	1b c0       	rjmp	.+54     	; 0x26d8 <vfprintf+0x1aa>
    26a2:	83 2d       	mov	r24, r3
    26a4:	90 e0       	ldi	r25, 0x00	; 0
    26a6:	48 16       	cp	r4, r24
    26a8:	59 06       	cpc	r5, r25
    26aa:	b0 f4       	brcc	.+44     	; 0x26d8 <vfprintf+0x1aa>
    26ac:	b7 01       	movw	r22, r14
    26ae:	80 e2       	ldi	r24, 0x20	; 32
    26b0:	90 e0       	ldi	r25, 0x00	; 0
    26b2:	0e 94 7f 14 	call	0x28fe	; 0x28fe <fputc>
    26b6:	3a 94       	dec	r3
    26b8:	f4 cf       	rjmp	.-24     	; 0x26a2 <vfprintf+0x174>
    26ba:	f5 01       	movw	r30, r10
    26bc:	27 fc       	sbrc	r2, 7
    26be:	85 91       	lpm	r24, Z+
    26c0:	27 fe       	sbrs	r2, 7
    26c2:	81 91       	ld	r24, Z+
    26c4:	5f 01       	movw	r10, r30
    26c6:	b7 01       	movw	r22, r14
    26c8:	90 e0       	ldi	r25, 0x00	; 0
    26ca:	0e 94 7f 14 	call	0x28fe	; 0x28fe <fputc>
    26ce:	31 10       	cpse	r3, r1
    26d0:	3a 94       	dec	r3
    26d2:	f1 e0       	ldi	r31, 0x01	; 1
    26d4:	4f 1a       	sub	r4, r31
    26d6:	51 08       	sbc	r5, r1
    26d8:	41 14       	cp	r4, r1
    26da:	51 04       	cpc	r5, r1
    26dc:	71 f7       	brne	.-36     	; 0x26ba <vfprintf+0x18c>
    26de:	e5 c0       	rjmp	.+458    	; 0x28aa <vfprintf+0x37c>
    26e0:	84 36       	cpi	r24, 0x64	; 100
    26e2:	11 f0       	breq	.+4      	; 0x26e8 <vfprintf+0x1ba>
    26e4:	89 36       	cpi	r24, 0x69	; 105
    26e6:	39 f5       	brne	.+78     	; 0x2736 <vfprintf+0x208>
    26e8:	f8 01       	movw	r30, r16
    26ea:	27 ff       	sbrs	r18, 7
    26ec:	07 c0       	rjmp	.+14     	; 0x26fc <vfprintf+0x1ce>
    26ee:	60 81       	ld	r22, Z
    26f0:	71 81       	ldd	r23, Z+1	; 0x01
    26f2:	82 81       	ldd	r24, Z+2	; 0x02
    26f4:	93 81       	ldd	r25, Z+3	; 0x03
    26f6:	0c 5f       	subi	r16, 0xFC	; 252
    26f8:	1f 4f       	sbci	r17, 0xFF	; 255
    26fa:	08 c0       	rjmp	.+16     	; 0x270c <vfprintf+0x1de>
    26fc:	60 81       	ld	r22, Z
    26fe:	71 81       	ldd	r23, Z+1	; 0x01
    2700:	07 2e       	mov	r0, r23
    2702:	00 0c       	add	r0, r0
    2704:	88 0b       	sbc	r24, r24
    2706:	99 0b       	sbc	r25, r25
    2708:	0e 5f       	subi	r16, 0xFE	; 254
    270a:	1f 4f       	sbci	r17, 0xFF	; 255
    270c:	2f 76       	andi	r18, 0x6F	; 111
    270e:	72 2e       	mov	r7, r18
    2710:	97 ff       	sbrs	r25, 7
    2712:	09 c0       	rjmp	.+18     	; 0x2726 <vfprintf+0x1f8>
    2714:	90 95       	com	r25
    2716:	80 95       	com	r24
    2718:	70 95       	com	r23
    271a:	61 95       	neg	r22
    271c:	7f 4f       	sbci	r23, 0xFF	; 255
    271e:	8f 4f       	sbci	r24, 0xFF	; 255
    2720:	9f 4f       	sbci	r25, 0xFF	; 255
    2722:	20 68       	ori	r18, 0x80	; 128
    2724:	72 2e       	mov	r7, r18
    2726:	2a e0       	ldi	r18, 0x0A	; 10
    2728:	30 e0       	ldi	r19, 0x00	; 0
    272a:	a4 01       	movw	r20, r8
    272c:	0e 94 b7 14 	call	0x296e	; 0x296e <__ultoa_invert>
    2730:	a8 2e       	mov	r10, r24
    2732:	a8 18       	sub	r10, r8
    2734:	44 c0       	rjmp	.+136    	; 0x27be <vfprintf+0x290>
    2736:	85 37       	cpi	r24, 0x75	; 117
    2738:	29 f4       	brne	.+10     	; 0x2744 <vfprintf+0x216>
    273a:	2f 7e       	andi	r18, 0xEF	; 239
    273c:	b2 2e       	mov	r11, r18
    273e:	2a e0       	ldi	r18, 0x0A	; 10
    2740:	30 e0       	ldi	r19, 0x00	; 0
    2742:	25 c0       	rjmp	.+74     	; 0x278e <vfprintf+0x260>
    2744:	f2 2f       	mov	r31, r18
    2746:	f9 7f       	andi	r31, 0xF9	; 249
    2748:	bf 2e       	mov	r11, r31
    274a:	8f 36       	cpi	r24, 0x6F	; 111
    274c:	c1 f0       	breq	.+48     	; 0x277e <vfprintf+0x250>
    274e:	18 f4       	brcc	.+6      	; 0x2756 <vfprintf+0x228>
    2750:	88 35       	cpi	r24, 0x58	; 88
    2752:	79 f0       	breq	.+30     	; 0x2772 <vfprintf+0x244>
    2754:	b4 c0       	rjmp	.+360    	; 0x28be <vfprintf+0x390>
    2756:	80 37       	cpi	r24, 0x70	; 112
    2758:	19 f0       	breq	.+6      	; 0x2760 <vfprintf+0x232>
    275a:	88 37       	cpi	r24, 0x78	; 120
    275c:	21 f0       	breq	.+8      	; 0x2766 <vfprintf+0x238>
    275e:	af c0       	rjmp	.+350    	; 0x28be <vfprintf+0x390>
    2760:	2f 2f       	mov	r18, r31
    2762:	20 61       	ori	r18, 0x10	; 16
    2764:	b2 2e       	mov	r11, r18
    2766:	b4 fe       	sbrs	r11, 4
    2768:	0d c0       	rjmp	.+26     	; 0x2784 <vfprintf+0x256>
    276a:	8b 2d       	mov	r24, r11
    276c:	84 60       	ori	r24, 0x04	; 4
    276e:	b8 2e       	mov	r11, r24
    2770:	09 c0       	rjmp	.+18     	; 0x2784 <vfprintf+0x256>
    2772:	24 ff       	sbrs	r18, 4
    2774:	0a c0       	rjmp	.+20     	; 0x278a <vfprintf+0x25c>
    2776:	9f 2f       	mov	r25, r31
    2778:	96 60       	ori	r25, 0x06	; 6
    277a:	b9 2e       	mov	r11, r25
    277c:	06 c0       	rjmp	.+12     	; 0x278a <vfprintf+0x25c>
    277e:	28 e0       	ldi	r18, 0x08	; 8
    2780:	30 e0       	ldi	r19, 0x00	; 0
    2782:	05 c0       	rjmp	.+10     	; 0x278e <vfprintf+0x260>
    2784:	20 e1       	ldi	r18, 0x10	; 16
    2786:	30 e0       	ldi	r19, 0x00	; 0
    2788:	02 c0       	rjmp	.+4      	; 0x278e <vfprintf+0x260>
    278a:	20 e1       	ldi	r18, 0x10	; 16
    278c:	32 e0       	ldi	r19, 0x02	; 2
    278e:	f8 01       	movw	r30, r16
    2790:	b7 fe       	sbrs	r11, 7
    2792:	07 c0       	rjmp	.+14     	; 0x27a2 <vfprintf+0x274>
    2794:	60 81       	ld	r22, Z
    2796:	71 81       	ldd	r23, Z+1	; 0x01
    2798:	82 81       	ldd	r24, Z+2	; 0x02
    279a:	93 81       	ldd	r25, Z+3	; 0x03
    279c:	0c 5f       	subi	r16, 0xFC	; 252
    279e:	1f 4f       	sbci	r17, 0xFF	; 255
    27a0:	06 c0       	rjmp	.+12     	; 0x27ae <vfprintf+0x280>
    27a2:	60 81       	ld	r22, Z
    27a4:	71 81       	ldd	r23, Z+1	; 0x01
    27a6:	80 e0       	ldi	r24, 0x00	; 0
    27a8:	90 e0       	ldi	r25, 0x00	; 0
    27aa:	0e 5f       	subi	r16, 0xFE	; 254
    27ac:	1f 4f       	sbci	r17, 0xFF	; 255
    27ae:	a4 01       	movw	r20, r8
    27b0:	0e 94 b7 14 	call	0x296e	; 0x296e <__ultoa_invert>
    27b4:	a8 2e       	mov	r10, r24
    27b6:	a8 18       	sub	r10, r8
    27b8:	fb 2d       	mov	r31, r11
    27ba:	ff 77       	andi	r31, 0x7F	; 127
    27bc:	7f 2e       	mov	r7, r31
    27be:	76 fe       	sbrs	r7, 6
    27c0:	0b c0       	rjmp	.+22     	; 0x27d8 <vfprintf+0x2aa>
    27c2:	37 2d       	mov	r19, r7
    27c4:	3e 7f       	andi	r19, 0xFE	; 254
    27c6:	a5 14       	cp	r10, r5
    27c8:	50 f4       	brcc	.+20     	; 0x27de <vfprintf+0x2b0>
    27ca:	74 fe       	sbrs	r7, 4
    27cc:	0a c0       	rjmp	.+20     	; 0x27e2 <vfprintf+0x2b4>
    27ce:	72 fc       	sbrc	r7, 2
    27d0:	08 c0       	rjmp	.+16     	; 0x27e2 <vfprintf+0x2b4>
    27d2:	37 2d       	mov	r19, r7
    27d4:	3e 7e       	andi	r19, 0xEE	; 238
    27d6:	05 c0       	rjmp	.+10     	; 0x27e2 <vfprintf+0x2b4>
    27d8:	ba 2c       	mov	r11, r10
    27da:	37 2d       	mov	r19, r7
    27dc:	03 c0       	rjmp	.+6      	; 0x27e4 <vfprintf+0x2b6>
    27de:	ba 2c       	mov	r11, r10
    27e0:	01 c0       	rjmp	.+2      	; 0x27e4 <vfprintf+0x2b6>
    27e2:	b5 2c       	mov	r11, r5
    27e4:	34 ff       	sbrs	r19, 4
    27e6:	0d c0       	rjmp	.+26     	; 0x2802 <vfprintf+0x2d4>
    27e8:	fe 01       	movw	r30, r28
    27ea:	ea 0d       	add	r30, r10
    27ec:	f1 1d       	adc	r31, r1
    27ee:	80 81       	ld	r24, Z
    27f0:	80 33       	cpi	r24, 0x30	; 48
    27f2:	11 f4       	brne	.+4      	; 0x27f8 <vfprintf+0x2ca>
    27f4:	39 7e       	andi	r19, 0xE9	; 233
    27f6:	09 c0       	rjmp	.+18     	; 0x280a <vfprintf+0x2dc>
    27f8:	32 ff       	sbrs	r19, 2
    27fa:	06 c0       	rjmp	.+12     	; 0x2808 <vfprintf+0x2da>
    27fc:	b3 94       	inc	r11
    27fe:	b3 94       	inc	r11
    2800:	04 c0       	rjmp	.+8      	; 0x280a <vfprintf+0x2dc>
    2802:	83 2f       	mov	r24, r19
    2804:	86 78       	andi	r24, 0x86	; 134
    2806:	09 f0       	breq	.+2      	; 0x280a <vfprintf+0x2dc>
    2808:	b3 94       	inc	r11
    280a:	33 fd       	sbrc	r19, 3
    280c:	13 c0       	rjmp	.+38     	; 0x2834 <vfprintf+0x306>
    280e:	30 ff       	sbrs	r19, 0
    2810:	06 c0       	rjmp	.+12     	; 0x281e <vfprintf+0x2f0>
    2812:	5a 2c       	mov	r5, r10
    2814:	b3 14       	cp	r11, r3
    2816:	18 f4       	brcc	.+6      	; 0x281e <vfprintf+0x2f0>
    2818:	53 0c       	add	r5, r3
    281a:	5b 18       	sub	r5, r11
    281c:	b3 2c       	mov	r11, r3
    281e:	b3 14       	cp	r11, r3
    2820:	68 f4       	brcc	.+26     	; 0x283c <vfprintf+0x30e>
    2822:	b7 01       	movw	r22, r14
    2824:	80 e2       	ldi	r24, 0x20	; 32
    2826:	90 e0       	ldi	r25, 0x00	; 0
    2828:	3c 87       	std	Y+12, r19	; 0x0c
    282a:	0e 94 7f 14 	call	0x28fe	; 0x28fe <fputc>
    282e:	b3 94       	inc	r11
    2830:	3c 85       	ldd	r19, Y+12	; 0x0c
    2832:	f5 cf       	rjmp	.-22     	; 0x281e <vfprintf+0x2f0>
    2834:	b3 14       	cp	r11, r3
    2836:	10 f4       	brcc	.+4      	; 0x283c <vfprintf+0x30e>
    2838:	3b 18       	sub	r3, r11
    283a:	01 c0       	rjmp	.+2      	; 0x283e <vfprintf+0x310>
    283c:	31 2c       	mov	r3, r1
    283e:	34 ff       	sbrs	r19, 4
    2840:	12 c0       	rjmp	.+36     	; 0x2866 <vfprintf+0x338>
    2842:	b7 01       	movw	r22, r14
    2844:	80 e3       	ldi	r24, 0x30	; 48
    2846:	90 e0       	ldi	r25, 0x00	; 0
    2848:	3c 87       	std	Y+12, r19	; 0x0c
    284a:	0e 94 7f 14 	call	0x28fe	; 0x28fe <fputc>
    284e:	3c 85       	ldd	r19, Y+12	; 0x0c
    2850:	32 ff       	sbrs	r19, 2
    2852:	17 c0       	rjmp	.+46     	; 0x2882 <vfprintf+0x354>
    2854:	31 fd       	sbrc	r19, 1
    2856:	03 c0       	rjmp	.+6      	; 0x285e <vfprintf+0x330>
    2858:	88 e7       	ldi	r24, 0x78	; 120
    285a:	90 e0       	ldi	r25, 0x00	; 0
    285c:	02 c0       	rjmp	.+4      	; 0x2862 <vfprintf+0x334>
    285e:	88 e5       	ldi	r24, 0x58	; 88
    2860:	90 e0       	ldi	r25, 0x00	; 0
    2862:	b7 01       	movw	r22, r14
    2864:	0c c0       	rjmp	.+24     	; 0x287e <vfprintf+0x350>
    2866:	83 2f       	mov	r24, r19
    2868:	86 78       	andi	r24, 0x86	; 134
    286a:	59 f0       	breq	.+22     	; 0x2882 <vfprintf+0x354>
    286c:	31 ff       	sbrs	r19, 1
    286e:	02 c0       	rjmp	.+4      	; 0x2874 <vfprintf+0x346>
    2870:	8b e2       	ldi	r24, 0x2B	; 43
    2872:	01 c0       	rjmp	.+2      	; 0x2876 <vfprintf+0x348>
    2874:	80 e2       	ldi	r24, 0x20	; 32
    2876:	37 fd       	sbrc	r19, 7
    2878:	8d e2       	ldi	r24, 0x2D	; 45
    287a:	b7 01       	movw	r22, r14
    287c:	90 e0       	ldi	r25, 0x00	; 0
    287e:	0e 94 7f 14 	call	0x28fe	; 0x28fe <fputc>
    2882:	a5 14       	cp	r10, r5
    2884:	38 f4       	brcc	.+14     	; 0x2894 <vfprintf+0x366>
    2886:	b7 01       	movw	r22, r14
    2888:	80 e3       	ldi	r24, 0x30	; 48
    288a:	90 e0       	ldi	r25, 0x00	; 0
    288c:	0e 94 7f 14 	call	0x28fe	; 0x28fe <fputc>
    2890:	5a 94       	dec	r5
    2892:	f7 cf       	rjmp	.-18     	; 0x2882 <vfprintf+0x354>
    2894:	aa 94       	dec	r10
    2896:	f4 01       	movw	r30, r8
    2898:	ea 0d       	add	r30, r10
    289a:	f1 1d       	adc	r31, r1
    289c:	80 81       	ld	r24, Z
    289e:	b7 01       	movw	r22, r14
    28a0:	90 e0       	ldi	r25, 0x00	; 0
    28a2:	0e 94 7f 14 	call	0x28fe	; 0x28fe <fputc>
    28a6:	a1 10       	cpse	r10, r1
    28a8:	f5 cf       	rjmp	.-22     	; 0x2894 <vfprintf+0x366>
    28aa:	33 20       	and	r3, r3
    28ac:	09 f4       	brne	.+2      	; 0x28b0 <vfprintf+0x382>
    28ae:	51 ce       	rjmp	.-862    	; 0x2552 <vfprintf+0x24>
    28b0:	b7 01       	movw	r22, r14
    28b2:	80 e2       	ldi	r24, 0x20	; 32
    28b4:	90 e0       	ldi	r25, 0x00	; 0
    28b6:	0e 94 7f 14 	call	0x28fe	; 0x28fe <fputc>
    28ba:	3a 94       	dec	r3
    28bc:	f6 cf       	rjmp	.-20     	; 0x28aa <vfprintf+0x37c>
    28be:	f7 01       	movw	r30, r14
    28c0:	86 81       	ldd	r24, Z+6	; 0x06
    28c2:	97 81       	ldd	r25, Z+7	; 0x07
    28c4:	02 c0       	rjmp	.+4      	; 0x28ca <vfprintf+0x39c>
    28c6:	8f ef       	ldi	r24, 0xFF	; 255
    28c8:	9f ef       	ldi	r25, 0xFF	; 255
    28ca:	2c 96       	adiw	r28, 0x0c	; 12
    28cc:	e2 e1       	ldi	r30, 0x12	; 18
    28ce:	0c 94 e1 11 	jmp	0x23c2	; 0x23c2 <__epilogue_restores__>

000028d2 <strnlen_P>:
    28d2:	fc 01       	movw	r30, r24
    28d4:	05 90       	lpm	r0, Z+
    28d6:	61 50       	subi	r22, 0x01	; 1
    28d8:	70 40       	sbci	r23, 0x00	; 0
    28da:	01 10       	cpse	r0, r1
    28dc:	d8 f7       	brcc	.-10     	; 0x28d4 <strnlen_P+0x2>
    28de:	80 95       	com	r24
    28e0:	90 95       	com	r25
    28e2:	8e 0f       	add	r24, r30
    28e4:	9f 1f       	adc	r25, r31
    28e6:	08 95       	ret

000028e8 <strnlen>:
    28e8:	fc 01       	movw	r30, r24
    28ea:	61 50       	subi	r22, 0x01	; 1
    28ec:	70 40       	sbci	r23, 0x00	; 0
    28ee:	01 90       	ld	r0, Z+
    28f0:	01 10       	cpse	r0, r1
    28f2:	d8 f7       	brcc	.-10     	; 0x28ea <strnlen+0x2>
    28f4:	80 95       	com	r24
    28f6:	90 95       	com	r25
    28f8:	8e 0f       	add	r24, r30
    28fa:	9f 1f       	adc	r25, r31
    28fc:	08 95       	ret

000028fe <fputc>:
    28fe:	0f 93       	push	r16
    2900:	1f 93       	push	r17
    2902:	cf 93       	push	r28
    2904:	df 93       	push	r29
    2906:	fb 01       	movw	r30, r22
    2908:	23 81       	ldd	r18, Z+3	; 0x03
    290a:	21 fd       	sbrc	r18, 1
    290c:	03 c0       	rjmp	.+6      	; 0x2914 <fputc+0x16>
    290e:	8f ef       	ldi	r24, 0xFF	; 255
    2910:	9f ef       	ldi	r25, 0xFF	; 255
    2912:	28 c0       	rjmp	.+80     	; 0x2964 <fputc+0x66>
    2914:	22 ff       	sbrs	r18, 2
    2916:	16 c0       	rjmp	.+44     	; 0x2944 <fputc+0x46>
    2918:	46 81       	ldd	r20, Z+6	; 0x06
    291a:	57 81       	ldd	r21, Z+7	; 0x07
    291c:	24 81       	ldd	r18, Z+4	; 0x04
    291e:	35 81       	ldd	r19, Z+5	; 0x05
    2920:	42 17       	cp	r20, r18
    2922:	53 07       	cpc	r21, r19
    2924:	44 f4       	brge	.+16     	; 0x2936 <fputc+0x38>
    2926:	a0 81       	ld	r26, Z
    2928:	b1 81       	ldd	r27, Z+1	; 0x01
    292a:	9d 01       	movw	r18, r26
    292c:	2f 5f       	subi	r18, 0xFF	; 255
    292e:	3f 4f       	sbci	r19, 0xFF	; 255
    2930:	31 83       	std	Z+1, r19	; 0x01
    2932:	20 83       	st	Z, r18
    2934:	8c 93       	st	X, r24
    2936:	26 81       	ldd	r18, Z+6	; 0x06
    2938:	37 81       	ldd	r19, Z+7	; 0x07
    293a:	2f 5f       	subi	r18, 0xFF	; 255
    293c:	3f 4f       	sbci	r19, 0xFF	; 255
    293e:	37 83       	std	Z+7, r19	; 0x07
    2940:	26 83       	std	Z+6, r18	; 0x06
    2942:	10 c0       	rjmp	.+32     	; 0x2964 <fputc+0x66>
    2944:	eb 01       	movw	r28, r22
    2946:	09 2f       	mov	r16, r25
    2948:	18 2f       	mov	r17, r24
    294a:	00 84       	ldd	r0, Z+8	; 0x08
    294c:	f1 85       	ldd	r31, Z+9	; 0x09
    294e:	e0 2d       	mov	r30, r0
    2950:	09 95       	icall
    2952:	89 2b       	or	r24, r25
    2954:	e1 f6       	brne	.-72     	; 0x290e <fputc+0x10>
    2956:	8e 81       	ldd	r24, Y+6	; 0x06
    2958:	9f 81       	ldd	r25, Y+7	; 0x07
    295a:	01 96       	adiw	r24, 0x01	; 1
    295c:	9f 83       	std	Y+7, r25	; 0x07
    295e:	8e 83       	std	Y+6, r24	; 0x06
    2960:	81 2f       	mov	r24, r17
    2962:	90 2f       	mov	r25, r16
    2964:	df 91       	pop	r29
    2966:	cf 91       	pop	r28
    2968:	1f 91       	pop	r17
    296a:	0f 91       	pop	r16
    296c:	08 95       	ret

0000296e <__ultoa_invert>:
    296e:	fa 01       	movw	r30, r20
    2970:	aa 27       	eor	r26, r26
    2972:	28 30       	cpi	r18, 0x08	; 8
    2974:	51 f1       	breq	.+84     	; 0x29ca <__ultoa_invert+0x5c>
    2976:	20 31       	cpi	r18, 0x10	; 16
    2978:	81 f1       	breq	.+96     	; 0x29da <__ultoa_invert+0x6c>
    297a:	e8 94       	clt
    297c:	6f 93       	push	r22
    297e:	6e 7f       	andi	r22, 0xFE	; 254
    2980:	6e 5f       	subi	r22, 0xFE	; 254
    2982:	7f 4f       	sbci	r23, 0xFF	; 255
    2984:	8f 4f       	sbci	r24, 0xFF	; 255
    2986:	9f 4f       	sbci	r25, 0xFF	; 255
    2988:	af 4f       	sbci	r26, 0xFF	; 255
    298a:	b1 e0       	ldi	r27, 0x01	; 1
    298c:	3e d0       	rcall	.+124    	; 0x2a0a <__ultoa_invert+0x9c>
    298e:	b4 e0       	ldi	r27, 0x04	; 4
    2990:	3c d0       	rcall	.+120    	; 0x2a0a <__ultoa_invert+0x9c>
    2992:	67 0f       	add	r22, r23
    2994:	78 1f       	adc	r23, r24
    2996:	89 1f       	adc	r24, r25
    2998:	9a 1f       	adc	r25, r26
    299a:	a1 1d       	adc	r26, r1
    299c:	68 0f       	add	r22, r24
    299e:	79 1f       	adc	r23, r25
    29a0:	8a 1f       	adc	r24, r26
    29a2:	91 1d       	adc	r25, r1
    29a4:	a1 1d       	adc	r26, r1
    29a6:	6a 0f       	add	r22, r26
    29a8:	71 1d       	adc	r23, r1
    29aa:	81 1d       	adc	r24, r1
    29ac:	91 1d       	adc	r25, r1
    29ae:	a1 1d       	adc	r26, r1
    29b0:	20 d0       	rcall	.+64     	; 0x29f2 <__ultoa_invert+0x84>
    29b2:	09 f4       	brne	.+2      	; 0x29b6 <__ultoa_invert+0x48>
    29b4:	68 94       	set
    29b6:	3f 91       	pop	r19
    29b8:	2a e0       	ldi	r18, 0x0A	; 10
    29ba:	26 9f       	mul	r18, r22
    29bc:	11 24       	eor	r1, r1
    29be:	30 19       	sub	r19, r0
    29c0:	30 5d       	subi	r19, 0xD0	; 208
    29c2:	31 93       	st	Z+, r19
    29c4:	de f6       	brtc	.-74     	; 0x297c <__ultoa_invert+0xe>
    29c6:	cf 01       	movw	r24, r30
    29c8:	08 95       	ret
    29ca:	46 2f       	mov	r20, r22
    29cc:	47 70       	andi	r20, 0x07	; 7
    29ce:	40 5d       	subi	r20, 0xD0	; 208
    29d0:	41 93       	st	Z+, r20
    29d2:	b3 e0       	ldi	r27, 0x03	; 3
    29d4:	0f d0       	rcall	.+30     	; 0x29f4 <__ultoa_invert+0x86>
    29d6:	c9 f7       	brne	.-14     	; 0x29ca <__ultoa_invert+0x5c>
    29d8:	f6 cf       	rjmp	.-20     	; 0x29c6 <__ultoa_invert+0x58>
    29da:	46 2f       	mov	r20, r22
    29dc:	4f 70       	andi	r20, 0x0F	; 15
    29de:	40 5d       	subi	r20, 0xD0	; 208
    29e0:	4a 33       	cpi	r20, 0x3A	; 58
    29e2:	18 f0       	brcs	.+6      	; 0x29ea <__ultoa_invert+0x7c>
    29e4:	49 5d       	subi	r20, 0xD9	; 217
    29e6:	31 fd       	sbrc	r19, 1
    29e8:	40 52       	subi	r20, 0x20	; 32
    29ea:	41 93       	st	Z+, r20
    29ec:	02 d0       	rcall	.+4      	; 0x29f2 <__ultoa_invert+0x84>
    29ee:	a9 f7       	brne	.-22     	; 0x29da <__ultoa_invert+0x6c>
    29f0:	ea cf       	rjmp	.-44     	; 0x29c6 <__ultoa_invert+0x58>
    29f2:	b4 e0       	ldi	r27, 0x04	; 4
    29f4:	a6 95       	lsr	r26
    29f6:	97 95       	ror	r25
    29f8:	87 95       	ror	r24
    29fa:	77 95       	ror	r23
    29fc:	67 95       	ror	r22
    29fe:	ba 95       	dec	r27
    2a00:	c9 f7       	brne	.-14     	; 0x29f4 <__ultoa_invert+0x86>
    2a02:	00 97       	sbiw	r24, 0x00	; 0
    2a04:	61 05       	cpc	r22, r1
    2a06:	71 05       	cpc	r23, r1
    2a08:	08 95       	ret
    2a0a:	9b 01       	movw	r18, r22
    2a0c:	ac 01       	movw	r20, r24
    2a0e:	0a 2e       	mov	r0, r26
    2a10:	06 94       	lsr	r0
    2a12:	57 95       	ror	r21
    2a14:	47 95       	ror	r20
    2a16:	37 95       	ror	r19
    2a18:	27 95       	ror	r18
    2a1a:	ba 95       	dec	r27
    2a1c:	c9 f7       	brne	.-14     	; 0x2a10 <__ultoa_invert+0xa2>
    2a1e:	62 0f       	add	r22, r18
    2a20:	73 1f       	adc	r23, r19
    2a22:	84 1f       	adc	r24, r20
    2a24:	95 1f       	adc	r25, r21
    2a26:	a0 1d       	adc	r26, r0
    2a28:	08 95       	ret

00002a2a <_exit>:
    2a2a:	f8 94       	cli

00002a2c <__stop_program>:
    2a2c:	ff cf       	rjmp	.-2      	; 0x2a2c <__stop_program>
